Archive member included to satisfy reference by file (symbol)

/usr/local/gcc-arm-none-eabi-5_4-2016q3/bin/../lib/gcc/arm-none-eabi/5.4.1/../../../../arm-none-eabi/lib/armv7e-m/fpu/libstdc++_nano.a(del_op.o)
                              obj/MPU6050_raw.o (symbol from plugin) (operator delete(void*))
/usr/local/gcc-arm-none-eabi-5_4-2016q3/bin/../lib/gcc/arm-none-eabi/5.4.1/../../../../arm-none-eabi/lib/armv7e-m/fpu/libstdc++_nano.a(new_op.o)
                              obj/MPU6050_raw.o (symbol from plugin) (operator new(unsigned int))
/usr/local/gcc-arm-none-eabi-5_4-2016q3/bin/../lib/gcc/arm-none-eabi/5.4.1/../../../../arm-none-eabi/lib/armv7e-m/fpu/libstdc++_nano.a(new_handler.o)
                              /usr/local/gcc-arm-none-eabi-5_4-2016q3/bin/../lib/gcc/arm-none-eabi/5.4.1/../../../../arm-none-eabi/lib/armv7e-m/fpu/libstdc++_nano.a(new_op.o) (std::get_new_handler())
/usr/local/gcc-arm-none-eabi-5_4-2016q3/bin/../lib/gcc/arm-none-eabi/5.4.1/../../../../arm-none-eabi/lib/armv7e-m/fpu/libc_nano.a(lib_a-abort.o)
                              /usr/local/gcc-arm-none-eabi-5_4-2016q3/bin/../lib/gcc/arm-none-eabi/5.4.1/../../../../arm-none-eabi/lib/armv7e-m/fpu/libstdc++_nano.a(new_op.o) (abort)
/usr/local/gcc-arm-none-eabi-5_4-2016q3/bin/../lib/gcc/arm-none-eabi/5.4.1/../../../../arm-none-eabi/lib/armv7e-m/fpu/libc_nano.a(lib_a-malloc.o)
                              /usr/local/gcc-arm-none-eabi-5_4-2016q3/bin/../lib/gcc/arm-none-eabi/5.4.1/../../../../arm-none-eabi/lib/armv7e-m/fpu/libstdc++_nano.a(new_op.o) (malloc)
/usr/local/gcc-arm-none-eabi-5_4-2016q3/bin/../lib/gcc/arm-none-eabi/5.4.1/../../../../arm-none-eabi/lib/armv7e-m/fpu/libc_nano.a(lib_a-nano-freer.o)
                              /usr/local/gcc-arm-none-eabi-5_4-2016q3/bin/../lib/gcc/arm-none-eabi/5.4.1/../../../../arm-none-eabi/lib/armv7e-m/fpu/libc_nano.a(lib_a-malloc.o) (_free_r)
/usr/local/gcc-arm-none-eabi-5_4-2016q3/bin/../lib/gcc/arm-none-eabi/5.4.1/../../../../arm-none-eabi/lib/armv7e-m/fpu/libc_nano.a(lib_a-nano-mallocr.o)
                              /usr/local/gcc-arm-none-eabi-5_4-2016q3/bin/../lib/gcc/arm-none-eabi/5.4.1/../../../../arm-none-eabi/lib/armv7e-m/fpu/libc_nano.a(lib_a-malloc.o) (_malloc_r)
/usr/local/gcc-arm-none-eabi-5_4-2016q3/bin/../lib/gcc/arm-none-eabi/5.4.1/../../../../arm-none-eabi/lib/armv7e-m/fpu/libc_nano.a(lib_a-sbrkr.o)
                              /usr/local/gcc-arm-none-eabi-5_4-2016q3/bin/../lib/gcc/arm-none-eabi/5.4.1/../../../../arm-none-eabi/lib/armv7e-m/fpu/libc_nano.a(lib_a-nano-mallocr.o) (_sbrk_r)
/usr/local/gcc-arm-none-eabi-5_4-2016q3/bin/../lib/gcc/arm-none-eabi/5.4.1/../../../../arm-none-eabi/lib/armv7e-m/fpu/libc_nano.a(lib_a-signal.o)
                              /usr/local/gcc-arm-none-eabi-5_4-2016q3/bin/../lib/gcc/arm-none-eabi/5.4.1/../../../../arm-none-eabi/lib/armv7e-m/fpu/libc_nano.a(lib_a-abort.o) (raise)
/usr/local/gcc-arm-none-eabi-5_4-2016q3/bin/../lib/gcc/arm-none-eabi/5.4.1/../../../../arm-none-eabi/lib/armv7e-m/fpu/libc_nano.a(lib_a-signalr.o)
                              /usr/local/gcc-arm-none-eabi-5_4-2016q3/bin/../lib/gcc/arm-none-eabi/5.4.1/../../../../arm-none-eabi/lib/armv7e-m/fpu/libc_nano.a(lib_a-signal.o) (_kill_r)
/usr/local/gcc-arm-none-eabi-5_4-2016q3/bin/../lib/gcc/arm-none-eabi/5.4.1/../../../../arm-none-eabi/lib/armv7e-m/fpu/libc_nano.a(lib_a-impure.o)
                              /usr/local/gcc-arm-none-eabi-5_4-2016q3/bin/../lib/gcc/arm-none-eabi/5.4.1/../../../../arm-none-eabi/lib/armv7e-m/fpu/libc_nano.a(lib_a-malloc.o) (_impure_ptr)
/usr/local/gcc-arm-none-eabi-5_4-2016q3/bin/../lib/gcc/arm-none-eabi/5.4.1/../../../../arm-none-eabi/lib/armv7e-m/fpu/libc_nano.a(lib_a-mlock.o)
                              /usr/local/gcc-arm-none-eabi-5_4-2016q3/bin/../lib/gcc/arm-none-eabi/5.4.1/../../../../arm-none-eabi/lib/armv7e-m/fpu/libc_nano.a(lib_a-nano-freer.o) (__malloc_lock)
/usr/local/gcc-arm-none-eabi-5_4-2016q3/bin/../lib/gcc/arm-none-eabi/5.4.1/../../../../arm-none-eabi/lib/armv7e-m/fpu/libc_nano.a(lib_a-reent.o)
                              /usr/local/gcc-arm-none-eabi-5_4-2016q3/bin/../lib/gcc/arm-none-eabi/5.4.1/../../../../arm-none-eabi/lib/armv7e-m/fpu/libc_nano.a(lib_a-sbrkr.o) (errno)
/usr/local/gcc-arm-none-eabi-5_4-2016q3/bin/../lib/gcc/arm-none-eabi/5.4.1/../../../../arm-none-eabi/lib/armv7e-m/fpu/libnosys.a(getpid.o)
                              /usr/local/gcc-arm-none-eabi-5_4-2016q3/bin/../lib/gcc/arm-none-eabi/5.4.1/../../../../arm-none-eabi/lib/armv7e-m/fpu/libc_nano.a(lib_a-signalr.o) (_getpid)
/usr/local/gcc-arm-none-eabi-5_4-2016q3/bin/../lib/gcc/arm-none-eabi/5.4.1/../../../../arm-none-eabi/lib/armv7e-m/fpu/libnosys.a(kill.o)
                              /usr/local/gcc-arm-none-eabi-5_4-2016q3/bin/../lib/gcc/arm-none-eabi/5.4.1/../../../../arm-none-eabi/lib/armv7e-m/fpu/libc_nano.a(lib_a-signalr.o) (_kill)
/usr/local/gcc-arm-none-eabi-5_4-2016q3/bin/../lib/gcc/arm-none-eabi/5.4.1/../../../../arm-none-eabi/lib/armv7e-m/fpu/libnosys.a(sbrk.o)
                              /usr/local/gcc-arm-none-eabi-5_4-2016q3/bin/../lib/gcc/arm-none-eabi/5.4.1/../../../../arm-none-eabi/lib/armv7e-m/fpu/libc_nano.a(lib_a-sbrkr.o) (_sbrk)
/usr/local/gcc-arm-none-eabi-5_4-2016q3/bin/../lib/gcc/arm-none-eabi/5.4.1/../../../../arm-none-eabi/lib/armv7e-m/fpu/libnosys.a(_exit.o)
                              /usr/local/gcc-arm-none-eabi-5_4-2016q3/bin/../lib/gcc/arm-none-eabi/5.4.1/../../../../arm-none-eabi/lib/armv7e-m/fpu/libc_nano.a(lib_a-abort.o) (_exit)
/usr/local/gcc-arm-none-eabi-5_4-2016q3/bin/../lib/gcc/arm-none-eabi/5.4.1/../../../../arm-none-eabi/lib/armv7e-m/fpu/libc_nano.a(lib_a-memset.o)
                              /tmp/ccm9M6LD.ltrans0.ltrans.o (memset)
/usr/local/gcc-arm-none-eabi-5_4-2016q3/bin/../lib/gcc/arm-none-eabi/5.4.1/../../../../arm-none-eabi/lib/armv7e-m/fpu/libc_nano.a(lib_a-vsprintf.o)
                              /tmp/ccm9M6LD.ltrans4.ltrans.o (vsprintf)
/usr/local/gcc-arm-none-eabi-5_4-2016q3/bin/../lib/gcc/arm-none-eabi/5.4.1/../../../../arm-none-eabi/lib/armv7e-m/fpu/libc_nano.a(lib_a-nano-svfprintf.o)
                              /usr/local/gcc-arm-none-eabi-5_4-2016q3/bin/../lib/gcc/arm-none-eabi/5.4.1/../../../../arm-none-eabi/lib/armv7e-m/fpu/libc_nano.a(lib_a-vsprintf.o) (_svfprintf_r)
/usr/local/gcc-arm-none-eabi-5_4-2016q3/bin/../lib/gcc/arm-none-eabi/5.4.1/../../../../arm-none-eabi/lib/armv7e-m/fpu/libc_nano.a(lib_a-nano-vfprintf_i.o)
                              /usr/local/gcc-arm-none-eabi-5_4-2016q3/bin/../lib/gcc/arm-none-eabi/5.4.1/../../../../arm-none-eabi/lib/armv7e-m/fpu/libc_nano.a(lib_a-nano-svfprintf.o) (_printf_i)
/usr/local/gcc-arm-none-eabi-5_4-2016q3/bin/../lib/gcc/arm-none-eabi/5.4.1/../../../../arm-none-eabi/lib/armv7e-m/fpu/libc_nano.a(lib_a-memchr.o)
                              /usr/local/gcc-arm-none-eabi-5_4-2016q3/bin/../lib/gcc/arm-none-eabi/5.4.1/../../../../arm-none-eabi/lib/armv7e-m/fpu/libc_nano.a(lib_a-nano-svfprintf.o) (memchr)
/usr/local/gcc-arm-none-eabi-5_4-2016q3/bin/../lib/gcc/arm-none-eabi/5.4.1/../../../../arm-none-eabi/lib/armv7e-m/fpu/libc_nano.a(lib_a-memcpy-stub.o)
                              /usr/local/gcc-arm-none-eabi-5_4-2016q3/bin/../lib/gcc/arm-none-eabi/5.4.1/../../../../arm-none-eabi/lib/armv7e-m/fpu/libc_nano.a(lib_a-nano-svfprintf.o) (memcpy)
/usr/local/gcc-arm-none-eabi-5_4-2016q3/bin/../lib/gcc/arm-none-eabi/5.4.1/../../../../arm-none-eabi/lib/armv7e-m/fpu/libc_nano.a(lib_a-memmove.o)
                              /usr/local/gcc-arm-none-eabi-5_4-2016q3/bin/../lib/gcc/arm-none-eabi/5.4.1/../../../../arm-none-eabi/lib/armv7e-m/fpu/libc_nano.a(lib_a-nano-svfprintf.o) (memmove)
/usr/local/gcc-arm-none-eabi-5_4-2016q3/bin/../lib/gcc/arm-none-eabi/5.4.1/../../../../arm-none-eabi/lib/armv7e-m/fpu/libc_nano.a(lib_a-nano-reallocr.o)
                              /usr/local/gcc-arm-none-eabi-5_4-2016q3/bin/../lib/gcc/arm-none-eabi/5.4.1/../../../../arm-none-eabi/lib/armv7e-m/fpu/libc_nano.a(lib_a-nano-svfprintf.o) (_realloc_r)
/usr/local/gcc-arm-none-eabi-5_4-2016q3/bin/../lib/gcc/arm-none-eabi/5.4.1/../../../../arm-none-eabi/lib/armv7e-m/fpu/libc_nano.a(lib_a-nano-msizer.o)
                              /usr/local/gcc-arm-none-eabi-5_4-2016q3/bin/../lib/gcc/arm-none-eabi/5.4.1/../../../../arm-none-eabi/lib/armv7e-m/fpu/libc_nano.a(lib_a-nano-reallocr.o) (_malloc_usable_size_r)
/usr/local/gcc-arm-none-eabi-5_4-2016q3/bin/../lib/gcc/arm-none-eabi/5.4.1/armv7e-m/fpu/libgcc.a(unwind-arm.o)
                              /tmp/ccm9M6LD.ltrans0.ltrans.o (__aeabi_unwind_cpp_pr0)
/usr/local/gcc-arm-none-eabi-5_4-2016q3/bin/../lib/gcc/arm-none-eabi/5.4.1/armv7e-m/fpu/libgcc.a(libunwind.o)
                              /usr/local/gcc-arm-none-eabi-5_4-2016q3/bin/../lib/gcc/arm-none-eabi/5.4.1/armv7e-m/fpu/libgcc.a(unwind-arm.o) (restore_core_regs)
/usr/local/gcc-arm-none-eabi-5_4-2016q3/bin/../lib/gcc/arm-none-eabi/5.4.1/armv7e-m/fpu/libgcc.a(pr-support.o)
                              /usr/local/gcc-arm-none-eabi-5_4-2016q3/bin/../lib/gcc/arm-none-eabi/5.4.1/armv7e-m/fpu/libgcc.a(unwind-arm.o) (__gnu_unwind_execute)

Allocating common symbols
Common symbol       size              file

sendLength          0x4               obj/MPU6050_raw/vcp/hw_config.o (symbol from plugin)
timerChannelInfo    0xb               obj/MPU6050_raw/timer.o (symbol from plugin)
HSEStartUpStatus    0x1               obj/MPU6050_raw/vcp/hw_config.o (symbol from plugin)
SaveState           0x2               obj/MPU6050_raw/usb_init.o (symbol from plugin)
errno               0x4               /usr/local/gcc-arm-none-eabi-5_4-2016q3/bin/../lib/gcc/arm-none-eabi/5.4.1/../../../../arm-none-eabi/lib/armv7e-m/fpu/libc_nano.a(lib_a-reent.o)
wIstr               0x2               obj/MPU6050_raw/vcp/usb_istr.o (symbol from plugin)
EPindex             0x1               obj/MPU6050_raw/usb_init.o (symbol from plugin)
timerInfo           0x5               obj/MPU6050_raw/timer.o (symbol from plugin)
ioRecs              0x1a0             obj/MPU6050_raw/io.o (symbol from plugin)
StatusInfo          0x2               obj/MPU6050_raw/usb_core.o (symbol from plugin)
ResumeS             0x2               obj/MPU6050_raw/vcp/usb_pwr.o (symbol from plugin)
led_config          0x18              obj/MPU6050_raw/light_led_stm32f30x.o (symbol from plugin)
extiChannelRecs     0x40              obj/MPU6050_raw/exti.o (symbol from plugin)
EP                  0x20              obj/MPU6050_raw/vcp/usb_pwr.o (symbol from plugin)
EXTI_InitStructure  0x8               obj/MPU6050_raw/vcp/hw_config.o (symbol from plugin)
cachedRccCsrValue   0x4               obj/MPU6050_raw/system.o (symbol from plugin)

Discarded input sections

 .text          0x00000000        0x0 obj/MPU6050_raw/timer.o (symbol from plugin)
 .text          0x00000000        0x0 /tmp/ccm9M6LD.ltrans0.ltrans.o
 .ARM.extab.text.startup
                0x00000000        0x0 /tmp/ccm9M6LD.ltrans0.ltrans.o
 .data          0x00000000        0x0 /tmp/ccm9M6LD.ltrans2.ltrans.o
 .data          0x00000000        0x0 /tmp/ccm9M6LD.ltrans4.ltrans.o
 .ARM.extab     0x00000000        0x0 /tmp/ccm9M6LD.ltrans4.ltrans.o
 .text          0x00000000        0x0 obj/MPU6050_raw/timer_stm32f30x.o (symbol from plugin)
 .text          0x00000000        0x0 obj/MPU6050_raw/serial_usb_vcp.o (symbol from plugin)
 .text          0x00000000       0x14 obj/MPU6050_raw/startup_stm32f30x_md_gcc.o
 .data          0x00000000        0x0 obj/MPU6050_raw/startup_stm32f30x_md_gcc.o
 .bss           0x00000000        0x0 obj/MPU6050_raw/startup_stm32f30x_md_gcc.o
 .text          0x00000000        0x0 obj/MPU6050_raw/target/system_stm32f30x.o (symbol from plugin)
 .text          0x00000000        0x0 obj/MPU6050_raw/gpio_stm32f30x.o (symbol from plugin)
 .text          0x00000000        0x0 obj/MPU6050_raw/light_led_stm32f30x.o (symbol from plugin)
 .text          0x00000000        0x0 obj/MPU6050_raw/serial_uart.o (symbol from plugin)
 .text          0x00000000        0x0 obj/MPU6050_raw/serial_uart_stm32f30x.o (symbol from plugin)
 .text          0x00000000        0x0 obj/MPU6050_raw/system_stm32f30x.o (symbol from plugin)
 .text          0x00000000        0x0 obj/MPU6050_raw/exti.o (symbol from plugin)
 .text          0x00000000        0x0 obj/MPU6050_raw/io.o (symbol from plugin)
 .text          0x00000000        0x0 obj/MPU6050_raw/dma.o (symbol from plugin)
 .text          0x00000000        0x0 obj/MPU6050_raw/serial.o (symbol from plugin)
 .text          0x00000000        0x0 obj/MPU6050_raw/system.o (symbol from plugin)
 .text          0x00000000        0x0 obj/MPU6050_raw/stm32f30x_gpio.o (symbol from plugin)
 .text          0x00000000        0x0 obj/MPU6050_raw/stm32f30x_rcc.o (symbol from plugin)
 .text          0x00000000        0x0 obj/MPU6050_raw/stm32f30x_adc.o (symbol from plugin)
 .text          0x00000000        0x0 obj/MPU6050_raw/stm32f30x_comp.o (symbol from plugin)
 .text          0x00000000        0x0 obj/MPU6050_raw/stm32f30x_dac.o (symbol from plugin)
 .text          0x00000000        0x0 obj/MPU6050_raw/stm32f30x_dbgmcu.o (symbol from plugin)
 .text          0x00000000        0x0 obj/MPU6050_raw/stm32f30x_dma.o (symbol from plugin)
 .text          0x00000000        0x0 obj/MPU6050_raw/stm32f30x_exti.o (symbol from plugin)
 .text          0x00000000        0x0 obj/MPU6050_raw/stm32f30x_flash.o (symbol from plugin)
 .text          0x00000000        0x0 obj/MPU6050_raw/stm32f30x_hrtim.o (symbol from plugin)
 .text          0x00000000        0x0 obj/MPU6050_raw/stm32f30x_i2c.o (symbol from plugin)
 .text          0x00000000        0x0 obj/MPU6050_raw/stm32f30x_iwdg.o (symbol from plugin)
 .text          0x00000000        0x0 obj/MPU6050_raw/stm32f30x_misc.o (symbol from plugin)
 .text          0x00000000        0x0 obj/MPU6050_raw/stm32f30x_opamp.o (symbol from plugin)
 .text          0x00000000        0x0 obj/MPU6050_raw/stm32f30x_pwr.o (symbol from plugin)
 .text          0x00000000        0x0 obj/MPU6050_raw/stm32f30x_rtc.o (symbol from plugin)
 .text          0x00000000        0x0 obj/MPU6050_raw/stm32f30x_spi.o (symbol from plugin)
 .text          0x00000000        0x0 obj/MPU6050_raw/stm32f30x_syscfg.o (symbol from plugin)
 .text          0x00000000        0x0 obj/MPU6050_raw/stm32f30x_tim.o (symbol from plugin)
 .text          0x00000000        0x0 obj/MPU6050_raw/stm32f30x_usart.o (symbol from plugin)
 .text          0x00000000        0x0 obj/MPU6050_raw/stm32f30x_wwdg.o (symbol from plugin)
 .text          0x00000000        0x0 obj/MPU6050_raw/usb_core.o (symbol from plugin)
 .text          0x00000000        0x0 obj/MPU6050_raw/usb_init.o (symbol from plugin)
 .text          0x00000000        0x0 obj/MPU6050_raw/usb_int.o (symbol from plugin)
 .text          0x00000000        0x0 obj/MPU6050_raw/usb_mem.o (symbol from plugin)
 .text          0x00000000        0x0 obj/MPU6050_raw/usb_regs.o (symbol from plugin)
 .text          0x00000000        0x0 obj/MPU6050_raw/usb_sil.o (symbol from plugin)
 .text          0x00000000        0x0 obj/MPU6050_raw/vcp/hw_config.o (symbol from plugin)
 .text          0x00000000        0x0 obj/MPU6050_raw/vcp/stm32_it.o (symbol from plugin)
 .text          0x00000000        0x0 obj/MPU6050_raw/vcp/usb_desc.o (symbol from plugin)
 .text          0x00000000        0x0 obj/MPU6050_raw/vcp/usb_endp.o (symbol from plugin)
 .text          0x00000000        0x0 obj/MPU6050_raw/vcp/usb_istr.o (symbol from plugin)
 .text          0x00000000        0x0 obj/MPU6050_raw/vcp/usb_prop.o (symbol from plugin)
 .text          0x00000000        0x0 obj/MPU6050_raw/vcp/usb_pwr.o (symbol from plugin)
 .text          0x00000000        0x0 obj/MPU6050_raw/usb_io.o (symbol from plugin)
 .text          0x00000000        0x0 obj/MPU6050_raw/Arduino.o (symbol from plugin)
 .text          0x00000000        0x0 obj/MPU6050_raw/HardwareWire.o (symbol from plugin)
 .text          0x00000000        0x0 obj/MPU6050_raw/MPU6050.o (symbol from plugin)
 .text          0x00000000        0x0 obj/MPU6050_raw.o (symbol from plugin)
 .gnu.linkonce.t._ZN14HardwareSerial6printfEPKcz
                0x00000000        0x0 obj/MPU6050_raw.o (symbol from plugin)
 .text          0x00000000        0x0 /usr/local/gcc-arm-none-eabi-5_4-2016q3/bin/../lib/gcc/arm-none-eabi/5.4.1/../../../../arm-none-eabi/lib/armv7e-m/fpu/libstdc++_nano.a(del_op.o)
 .data          0x00000000        0x0 /usr/local/gcc-arm-none-eabi-5_4-2016q3/bin/../lib/gcc/arm-none-eabi/5.4.1/../../../../arm-none-eabi/lib/armv7e-m/fpu/libstdc++_nano.a(del_op.o)
 .bss           0x00000000        0x0 /usr/local/gcc-arm-none-eabi-5_4-2016q3/bin/../lib/gcc/arm-none-eabi/5.4.1/../../../../arm-none-eabi/lib/armv7e-m/fpu/libstdc++_nano.a(del_op.o)
 .text._ZdlPv   0x00000000        0x4 /usr/local/gcc-arm-none-eabi-5_4-2016q3/bin/../lib/gcc/arm-none-eabi/5.4.1/../../../../arm-none-eabi/lib/armv7e-m/fpu/libstdc++_nano.a(del_op.o)
 .debug_frame   0x00000000       0x20 /usr/local/gcc-arm-none-eabi-5_4-2016q3/bin/../lib/gcc/arm-none-eabi/5.4.1/../../../../arm-none-eabi/lib/armv7e-m/fpu/libstdc++_nano.a(del_op.o)
 .ARM.attributes
                0x00000000       0x34 /usr/local/gcc-arm-none-eabi-5_4-2016q3/bin/../lib/gcc/arm-none-eabi/5.4.1/../../../../arm-none-eabi/lib/armv7e-m/fpu/libstdc++_nano.a(del_op.o)
 .text          0x00000000        0x0 /usr/local/gcc-arm-none-eabi-5_4-2016q3/bin/../lib/gcc/arm-none-eabi/5.4.1/../../../../arm-none-eabi/lib/armv7e-m/fpu/libstdc++_nano.a(new_op.o)
 .data          0x00000000        0x0 /usr/local/gcc-arm-none-eabi-5_4-2016q3/bin/../lib/gcc/arm-none-eabi/5.4.1/../../../../arm-none-eabi/lib/armv7e-m/fpu/libstdc++_nano.a(new_op.o)
 .bss           0x00000000        0x0 /usr/local/gcc-arm-none-eabi-5_4-2016q3/bin/../lib/gcc/arm-none-eabi/5.4.1/../../../../arm-none-eabi/lib/armv7e-m/fpu/libstdc++_nano.a(new_op.o)
 .text          0x00000000        0x0 /usr/local/gcc-arm-none-eabi-5_4-2016q3/bin/../lib/gcc/arm-none-eabi/5.4.1/../../../../arm-none-eabi/lib/armv7e-m/fpu/libstdc++_nano.a(new_handler.o)
 .data          0x00000000        0x0 /usr/local/gcc-arm-none-eabi-5_4-2016q3/bin/../lib/gcc/arm-none-eabi/5.4.1/../../../../arm-none-eabi/lib/armv7e-m/fpu/libstdc++_nano.a(new_handler.o)
 .bss           0x00000000        0x0 /usr/local/gcc-arm-none-eabi-5_4-2016q3/bin/../lib/gcc/arm-none-eabi/5.4.1/../../../../arm-none-eabi/lib/armv7e-m/fpu/libstdc++_nano.a(new_handler.o)
 .text._ZSt15set_new_handlerPFvvE
                0x00000000       0x20 /usr/local/gcc-arm-none-eabi-5_4-2016q3/bin/../lib/gcc/arm-none-eabi/5.4.1/../../../../arm-none-eabi/lib/armv7e-m/fpu/libstdc++_nano.a(new_handler.o)
 .rodata._ZSt7nothrow
                0x00000000        0x1 /usr/local/gcc-arm-none-eabi-5_4-2016q3/bin/../lib/gcc/arm-none-eabi/5.4.1/../../../../arm-none-eabi/lib/armv7e-m/fpu/libstdc++_nano.a(new_handler.o)
 .text          0x00000000        0x0 /usr/local/gcc-arm-none-eabi-5_4-2016q3/bin/../lib/gcc/arm-none-eabi/5.4.1/../../../../arm-none-eabi/lib/armv7e-m/fpu/libc_nano.a(lib_a-abort.o)
 .data          0x00000000        0x0 /usr/local/gcc-arm-none-eabi-5_4-2016q3/bin/../lib/gcc/arm-none-eabi/5.4.1/../../../../arm-none-eabi/lib/armv7e-m/fpu/libc_nano.a(lib_a-abort.o)
 .bss           0x00000000        0x0 /usr/local/gcc-arm-none-eabi-5_4-2016q3/bin/../lib/gcc/arm-none-eabi/5.4.1/../../../../arm-none-eabi/lib/armv7e-m/fpu/libc_nano.a(lib_a-abort.o)
 .text          0x00000000        0x0 /usr/local/gcc-arm-none-eabi-5_4-2016q3/bin/../lib/gcc/arm-none-eabi/5.4.1/../../../../arm-none-eabi/lib/armv7e-m/fpu/libc_nano.a(lib_a-malloc.o)
 .data          0x00000000        0x0 /usr/local/gcc-arm-none-eabi-5_4-2016q3/bin/../lib/gcc/arm-none-eabi/5.4.1/../../../../arm-none-eabi/lib/armv7e-m/fpu/libc_nano.a(lib_a-malloc.o)
 .bss           0x00000000        0x0 /usr/local/gcc-arm-none-eabi-5_4-2016q3/bin/../lib/gcc/arm-none-eabi/5.4.1/../../../../arm-none-eabi/lib/armv7e-m/fpu/libc_nano.a(lib_a-malloc.o)
 .text.free     0x00000000       0x10 /usr/local/gcc-arm-none-eabi-5_4-2016q3/bin/../lib/gcc/arm-none-eabi/5.4.1/../../../../arm-none-eabi/lib/armv7e-m/fpu/libc_nano.a(lib_a-malloc.o)
 .text          0x00000000        0x0 /usr/local/gcc-arm-none-eabi-5_4-2016q3/bin/../lib/gcc/arm-none-eabi/5.4.1/../../../../arm-none-eabi/lib/armv7e-m/fpu/libc_nano.a(lib_a-nano-freer.o)
 .data          0x00000000        0x0 /usr/local/gcc-arm-none-eabi-5_4-2016q3/bin/../lib/gcc/arm-none-eabi/5.4.1/../../../../arm-none-eabi/lib/armv7e-m/fpu/libc_nano.a(lib_a-nano-freer.o)
 .bss           0x00000000        0x0 /usr/local/gcc-arm-none-eabi-5_4-2016q3/bin/../lib/gcc/arm-none-eabi/5.4.1/../../../../arm-none-eabi/lib/armv7e-m/fpu/libc_nano.a(lib_a-nano-freer.o)
 .text          0x00000000        0x0 /usr/local/gcc-arm-none-eabi-5_4-2016q3/bin/../lib/gcc/arm-none-eabi/5.4.1/../../../../arm-none-eabi/lib/armv7e-m/fpu/libc_nano.a(lib_a-nano-mallocr.o)
 .data          0x00000000        0x0 /usr/local/gcc-arm-none-eabi-5_4-2016q3/bin/../lib/gcc/arm-none-eabi/5.4.1/../../../../arm-none-eabi/lib/armv7e-m/fpu/libc_nano.a(lib_a-nano-mallocr.o)
 .bss           0x00000000        0x0 /usr/local/gcc-arm-none-eabi-5_4-2016q3/bin/../lib/gcc/arm-none-eabi/5.4.1/../../../../arm-none-eabi/lib/armv7e-m/fpu/libc_nano.a(lib_a-nano-mallocr.o)
 .text          0x00000000        0x0 /usr/local/gcc-arm-none-eabi-5_4-2016q3/bin/../lib/gcc/arm-none-eabi/5.4.1/../../../../arm-none-eabi/lib/armv7e-m/fpu/libc_nano.a(lib_a-sbrkr.o)
 .data          0x00000000        0x0 /usr/local/gcc-arm-none-eabi-5_4-2016q3/bin/../lib/gcc/arm-none-eabi/5.4.1/../../../../arm-none-eabi/lib/armv7e-m/fpu/libc_nano.a(lib_a-sbrkr.o)
 .bss           0x00000000        0x0 /usr/local/gcc-arm-none-eabi-5_4-2016q3/bin/../lib/gcc/arm-none-eabi/5.4.1/../../../../arm-none-eabi/lib/armv7e-m/fpu/libc_nano.a(lib_a-sbrkr.o)
 .text          0x00000000        0x0 /usr/local/gcc-arm-none-eabi-5_4-2016q3/bin/../lib/gcc/arm-none-eabi/5.4.1/../../../../arm-none-eabi/lib/armv7e-m/fpu/libc_nano.a(lib_a-signal.o)
 .data          0x00000000        0x0 /usr/local/gcc-arm-none-eabi-5_4-2016q3/bin/../lib/gcc/arm-none-eabi/5.4.1/../../../../arm-none-eabi/lib/armv7e-m/fpu/libc_nano.a(lib_a-signal.o)
 .bss           0x00000000        0x0 /usr/local/gcc-arm-none-eabi-5_4-2016q3/bin/../lib/gcc/arm-none-eabi/5.4.1/../../../../arm-none-eabi/lib/armv7e-m/fpu/libc_nano.a(lib_a-signal.o)
 .text._init_signal_r
                0x00000000       0x2c /usr/local/gcc-arm-none-eabi-5_4-2016q3/bin/../lib/gcc/arm-none-eabi/5.4.1/../../../../arm-none-eabi/lib/armv7e-m/fpu/libc_nano.a(lib_a-signal.o)
 .text._signal_r
                0x00000000       0x30 /usr/local/gcc-arm-none-eabi-5_4-2016q3/bin/../lib/gcc/arm-none-eabi/5.4.1/../../../../arm-none-eabi/lib/armv7e-m/fpu/libc_nano.a(lib_a-signal.o)
 .text.__sigtramp_r
                0x00000000       0x4a /usr/local/gcc-arm-none-eabi-5_4-2016q3/bin/../lib/gcc/arm-none-eabi/5.4.1/../../../../arm-none-eabi/lib/armv7e-m/fpu/libc_nano.a(lib_a-signal.o)
 .text.signal   0x00000000       0x10 /usr/local/gcc-arm-none-eabi-5_4-2016q3/bin/../lib/gcc/arm-none-eabi/5.4.1/../../../../arm-none-eabi/lib/armv7e-m/fpu/libc_nano.a(lib_a-signal.o)
 .text._init_signal
                0x00000000        0xc /usr/local/gcc-arm-none-eabi-5_4-2016q3/bin/../lib/gcc/arm-none-eabi/5.4.1/../../../../arm-none-eabi/lib/armv7e-m/fpu/libc_nano.a(lib_a-signal.o)
 .text.__sigtramp
                0x00000000       0x10 /usr/local/gcc-arm-none-eabi-5_4-2016q3/bin/../lib/gcc/arm-none-eabi/5.4.1/../../../../arm-none-eabi/lib/armv7e-m/fpu/libc_nano.a(lib_a-signal.o)
 .text          0x00000000        0x0 /usr/local/gcc-arm-none-eabi-5_4-2016q3/bin/../lib/gcc/arm-none-eabi/5.4.1/../../../../arm-none-eabi/lib/armv7e-m/fpu/libc_nano.a(lib_a-signalr.o)
 .data          0x00000000        0x0 /usr/local/gcc-arm-none-eabi-5_4-2016q3/bin/../lib/gcc/arm-none-eabi/5.4.1/../../../../arm-none-eabi/lib/armv7e-m/fpu/libc_nano.a(lib_a-signalr.o)
 .bss           0x00000000        0x0 /usr/local/gcc-arm-none-eabi-5_4-2016q3/bin/../lib/gcc/arm-none-eabi/5.4.1/../../../../arm-none-eabi/lib/armv7e-m/fpu/libc_nano.a(lib_a-signalr.o)
 .text          0x00000000        0x0 /usr/local/gcc-arm-none-eabi-5_4-2016q3/bin/../lib/gcc/arm-none-eabi/5.4.1/../../../../arm-none-eabi/lib/armv7e-m/fpu/libc_nano.a(lib_a-impure.o)
 .data          0x00000000        0x0 /usr/local/gcc-arm-none-eabi-5_4-2016q3/bin/../lib/gcc/arm-none-eabi/5.4.1/../../../../arm-none-eabi/lib/armv7e-m/fpu/libc_nano.a(lib_a-impure.o)
 .bss           0x00000000        0x0 /usr/local/gcc-arm-none-eabi-5_4-2016q3/bin/../lib/gcc/arm-none-eabi/5.4.1/../../../../arm-none-eabi/lib/armv7e-m/fpu/libc_nano.a(lib_a-impure.o)
 .rodata._global_impure_ptr
                0x00000000        0x4 /usr/local/gcc-arm-none-eabi-5_4-2016q3/bin/../lib/gcc/arm-none-eabi/5.4.1/../../../../arm-none-eabi/lib/armv7e-m/fpu/libc_nano.a(lib_a-impure.o)
 .text          0x00000000        0x0 /usr/local/gcc-arm-none-eabi-5_4-2016q3/bin/../lib/gcc/arm-none-eabi/5.4.1/../../../../arm-none-eabi/lib/armv7e-m/fpu/libc_nano.a(lib_a-mlock.o)
 .data          0x00000000        0x0 /usr/local/gcc-arm-none-eabi-5_4-2016q3/bin/../lib/gcc/arm-none-eabi/5.4.1/../../../../arm-none-eabi/lib/armv7e-m/fpu/libc_nano.a(lib_a-mlock.o)
 .bss           0x00000000        0x0 /usr/local/gcc-arm-none-eabi-5_4-2016q3/bin/../lib/gcc/arm-none-eabi/5.4.1/../../../../arm-none-eabi/lib/armv7e-m/fpu/libc_nano.a(lib_a-mlock.o)
 .text          0x00000000        0x0 /usr/local/gcc-arm-none-eabi-5_4-2016q3/bin/../lib/gcc/arm-none-eabi/5.4.1/../../../../arm-none-eabi/lib/armv7e-m/fpu/libc_nano.a(lib_a-reent.o)
 .data          0x00000000        0x0 /usr/local/gcc-arm-none-eabi-5_4-2016q3/bin/../lib/gcc/arm-none-eabi/5.4.1/../../../../arm-none-eabi/lib/armv7e-m/fpu/libc_nano.a(lib_a-reent.o)
 .bss           0x00000000        0x0 /usr/local/gcc-arm-none-eabi-5_4-2016q3/bin/../lib/gcc/arm-none-eabi/5.4.1/../../../../arm-none-eabi/lib/armv7e-m/fpu/libc_nano.a(lib_a-reent.o)
 .text.cleanup_glue
                0x00000000       0x1a /usr/local/gcc-arm-none-eabi-5_4-2016q3/bin/../lib/gcc/arm-none-eabi/5.4.1/../../../../arm-none-eabi/lib/armv7e-m/fpu/libc_nano.a(lib_a-reent.o)
 .text._reclaim_reent
                0x00000000       0xb4 /usr/local/gcc-arm-none-eabi-5_4-2016q3/bin/../lib/gcc/arm-none-eabi/5.4.1/../../../../arm-none-eabi/lib/armv7e-m/fpu/libc_nano.a(lib_a-reent.o)
 .text          0x00000000        0x0 /usr/local/gcc-arm-none-eabi-5_4-2016q3/bin/../lib/gcc/arm-none-eabi/5.4.1/../../../../arm-none-eabi/lib/armv7e-m/fpu/libnosys.a(getpid.o)
 .data          0x00000000        0x0 /usr/local/gcc-arm-none-eabi-5_4-2016q3/bin/../lib/gcc/arm-none-eabi/5.4.1/../../../../arm-none-eabi/lib/armv7e-m/fpu/libnosys.a(getpid.o)
 .bss           0x00000000        0x0 /usr/local/gcc-arm-none-eabi-5_4-2016q3/bin/../lib/gcc/arm-none-eabi/5.4.1/../../../../arm-none-eabi/lib/armv7e-m/fpu/libnosys.a(getpid.o)
 .text          0x00000000        0x0 /usr/local/gcc-arm-none-eabi-5_4-2016q3/bin/../lib/gcc/arm-none-eabi/5.4.1/../../../../arm-none-eabi/lib/armv7e-m/fpu/libnosys.a(kill.o)
 .data          0x00000000        0x0 /usr/local/gcc-arm-none-eabi-5_4-2016q3/bin/../lib/gcc/arm-none-eabi/5.4.1/../../../../arm-none-eabi/lib/armv7e-m/fpu/libnosys.a(kill.o)
 .bss           0x00000000        0x0 /usr/local/gcc-arm-none-eabi-5_4-2016q3/bin/../lib/gcc/arm-none-eabi/5.4.1/../../../../arm-none-eabi/lib/armv7e-m/fpu/libnosys.a(kill.o)
 .text          0x00000000        0x0 /usr/local/gcc-arm-none-eabi-5_4-2016q3/bin/../lib/gcc/arm-none-eabi/5.4.1/../../../../arm-none-eabi/lib/armv7e-m/fpu/libnosys.a(sbrk.o)
 .data          0x00000000        0x0 /usr/local/gcc-arm-none-eabi-5_4-2016q3/bin/../lib/gcc/arm-none-eabi/5.4.1/../../../../arm-none-eabi/lib/armv7e-m/fpu/libnosys.a(sbrk.o)
 .bss           0x00000000        0x0 /usr/local/gcc-arm-none-eabi-5_4-2016q3/bin/../lib/gcc/arm-none-eabi/5.4.1/../../../../arm-none-eabi/lib/armv7e-m/fpu/libnosys.a(sbrk.o)
 .text          0x00000000        0x0 /usr/local/gcc-arm-none-eabi-5_4-2016q3/bin/../lib/gcc/arm-none-eabi/5.4.1/../../../../arm-none-eabi/lib/armv7e-m/fpu/libnosys.a(_exit.o)
 .data          0x00000000        0x0 /usr/local/gcc-arm-none-eabi-5_4-2016q3/bin/../lib/gcc/arm-none-eabi/5.4.1/../../../../arm-none-eabi/lib/armv7e-m/fpu/libnosys.a(_exit.o)
 .bss           0x00000000        0x0 /usr/local/gcc-arm-none-eabi-5_4-2016q3/bin/../lib/gcc/arm-none-eabi/5.4.1/../../../../arm-none-eabi/lib/armv7e-m/fpu/libnosys.a(_exit.o)
 .text          0x00000000        0x0 /usr/local/gcc-arm-none-eabi-5_4-2016q3/bin/../lib/gcc/arm-none-eabi/5.4.1/../../../../arm-none-eabi/lib/armv7e-m/fpu/libc_nano.a(lib_a-memset.o)
 .data          0x00000000        0x0 /usr/local/gcc-arm-none-eabi-5_4-2016q3/bin/../lib/gcc/arm-none-eabi/5.4.1/../../../../arm-none-eabi/lib/armv7e-m/fpu/libc_nano.a(lib_a-memset.o)
 .bss           0x00000000        0x0 /usr/local/gcc-arm-none-eabi-5_4-2016q3/bin/../lib/gcc/arm-none-eabi/5.4.1/../../../../arm-none-eabi/lib/armv7e-m/fpu/libc_nano.a(lib_a-memset.o)
 .text          0x00000000        0x0 /usr/local/gcc-arm-none-eabi-5_4-2016q3/bin/../lib/gcc/arm-none-eabi/5.4.1/../../../../arm-none-eabi/lib/armv7e-m/fpu/libc_nano.a(lib_a-vsprintf.o)
 .data          0x00000000        0x0 /usr/local/gcc-arm-none-eabi-5_4-2016q3/bin/../lib/gcc/arm-none-eabi/5.4.1/../../../../arm-none-eabi/lib/armv7e-m/fpu/libc_nano.a(lib_a-vsprintf.o)
 .bss           0x00000000        0x0 /usr/local/gcc-arm-none-eabi-5_4-2016q3/bin/../lib/gcc/arm-none-eabi/5.4.1/../../../../arm-none-eabi/lib/armv7e-m/fpu/libc_nano.a(lib_a-vsprintf.o)
 .text          0x00000000        0x0 /usr/local/gcc-arm-none-eabi-5_4-2016q3/bin/../lib/gcc/arm-none-eabi/5.4.1/../../../../arm-none-eabi/lib/armv7e-m/fpu/libc_nano.a(lib_a-nano-svfprintf.o)
 .data          0x00000000        0x0 /usr/local/gcc-arm-none-eabi-5_4-2016q3/bin/../lib/gcc/arm-none-eabi/5.4.1/../../../../arm-none-eabi/lib/armv7e-m/fpu/libc_nano.a(lib_a-nano-svfprintf.o)
 .bss           0x00000000        0x0 /usr/local/gcc-arm-none-eabi-5_4-2016q3/bin/../lib/gcc/arm-none-eabi/5.4.1/../../../../arm-none-eabi/lib/armv7e-m/fpu/libc_nano.a(lib_a-nano-svfprintf.o)
 .text.__ssprint_r
                0x00000000       0xfe /usr/local/gcc-arm-none-eabi-5_4-2016q3/bin/../lib/gcc/arm-none-eabi/5.4.1/../../../../arm-none-eabi/lib/armv7e-m/fpu/libc_nano.a(lib_a-nano-svfprintf.o)
 .text          0x00000000        0x0 /usr/local/gcc-arm-none-eabi-5_4-2016q3/bin/../lib/gcc/arm-none-eabi/5.4.1/../../../../arm-none-eabi/lib/armv7e-m/fpu/libc_nano.a(lib_a-nano-vfprintf_i.o)
 .data          0x00000000        0x0 /usr/local/gcc-arm-none-eabi-5_4-2016q3/bin/../lib/gcc/arm-none-eabi/5.4.1/../../../../arm-none-eabi/lib/armv7e-m/fpu/libc_nano.a(lib_a-nano-vfprintf_i.o)
 .bss           0x00000000        0x0 /usr/local/gcc-arm-none-eabi-5_4-2016q3/bin/../lib/gcc/arm-none-eabi/5.4.1/../../../../arm-none-eabi/lib/armv7e-m/fpu/libc_nano.a(lib_a-nano-vfprintf_i.o)
 .data          0x00000000        0x0 /usr/local/gcc-arm-none-eabi-5_4-2016q3/bin/../lib/gcc/arm-none-eabi/5.4.1/../../../../arm-none-eabi/lib/armv7e-m/fpu/libc_nano.a(lib_a-memchr.o)
 .bss           0x00000000        0x0 /usr/local/gcc-arm-none-eabi-5_4-2016q3/bin/../lib/gcc/arm-none-eabi/5.4.1/../../../../arm-none-eabi/lib/armv7e-m/fpu/libc_nano.a(lib_a-memchr.o)
 .text          0x00000000        0x0 /usr/local/gcc-arm-none-eabi-5_4-2016q3/bin/../lib/gcc/arm-none-eabi/5.4.1/../../../../arm-none-eabi/lib/armv7e-m/fpu/libc_nano.a(lib_a-memcpy-stub.o)
 .data          0x00000000        0x0 /usr/local/gcc-arm-none-eabi-5_4-2016q3/bin/../lib/gcc/arm-none-eabi/5.4.1/../../../../arm-none-eabi/lib/armv7e-m/fpu/libc_nano.a(lib_a-memcpy-stub.o)
 .bss           0x00000000        0x0 /usr/local/gcc-arm-none-eabi-5_4-2016q3/bin/../lib/gcc/arm-none-eabi/5.4.1/../../../../arm-none-eabi/lib/armv7e-m/fpu/libc_nano.a(lib_a-memcpy-stub.o)
 .text          0x00000000        0x0 /usr/local/gcc-arm-none-eabi-5_4-2016q3/bin/../lib/gcc/arm-none-eabi/5.4.1/../../../../arm-none-eabi/lib/armv7e-m/fpu/libc_nano.a(lib_a-memmove.o)
 .data          0x00000000        0x0 /usr/local/gcc-arm-none-eabi-5_4-2016q3/bin/../lib/gcc/arm-none-eabi/5.4.1/../../../../arm-none-eabi/lib/armv7e-m/fpu/libc_nano.a(lib_a-memmove.o)
 .bss           0x00000000        0x0 /usr/local/gcc-arm-none-eabi-5_4-2016q3/bin/../lib/gcc/arm-none-eabi/5.4.1/../../../../arm-none-eabi/lib/armv7e-m/fpu/libc_nano.a(lib_a-memmove.o)
 .text          0x00000000        0x0 /usr/local/gcc-arm-none-eabi-5_4-2016q3/bin/../lib/gcc/arm-none-eabi/5.4.1/../../../../arm-none-eabi/lib/armv7e-m/fpu/libc_nano.a(lib_a-nano-reallocr.o)
 .data          0x00000000        0x0 /usr/local/gcc-arm-none-eabi-5_4-2016q3/bin/../lib/gcc/arm-none-eabi/5.4.1/../../../../arm-none-eabi/lib/armv7e-m/fpu/libc_nano.a(lib_a-nano-reallocr.o)
 .bss           0x00000000        0x0 /usr/local/gcc-arm-none-eabi-5_4-2016q3/bin/../lib/gcc/arm-none-eabi/5.4.1/../../../../arm-none-eabi/lib/armv7e-m/fpu/libc_nano.a(lib_a-nano-reallocr.o)
 .text          0x00000000        0x0 /usr/local/gcc-arm-none-eabi-5_4-2016q3/bin/../lib/gcc/arm-none-eabi/5.4.1/../../../../arm-none-eabi/lib/armv7e-m/fpu/libc_nano.a(lib_a-nano-msizer.o)
 .data          0x00000000        0x0 /usr/local/gcc-arm-none-eabi-5_4-2016q3/bin/../lib/gcc/arm-none-eabi/5.4.1/../../../../arm-none-eabi/lib/armv7e-m/fpu/libc_nano.a(lib_a-nano-msizer.o)
 .bss           0x00000000        0x0 /usr/local/gcc-arm-none-eabi-5_4-2016q3/bin/../lib/gcc/arm-none-eabi/5.4.1/../../../../arm-none-eabi/lib/armv7e-m/fpu/libc_nano.a(lib_a-nano-msizer.o)
 .data          0x00000000        0x0 /usr/local/gcc-arm-none-eabi-5_4-2016q3/bin/../lib/gcc/arm-none-eabi/5.4.1/armv7e-m/fpu/libgcc.a(unwind-arm.o)
 .bss           0x00000000        0x0 /usr/local/gcc-arm-none-eabi-5_4-2016q3/bin/../lib/gcc/arm-none-eabi/5.4.1/armv7e-m/fpu/libgcc.a(unwind-arm.o)
 .ARM.extab     0x00000000        0x0 /usr/local/gcc-arm-none-eabi-5_4-2016q3/bin/../lib/gcc/arm-none-eabi/5.4.1/armv7e-m/fpu/libgcc.a(unwind-arm.o)
 .debug_frame   0x00000000      0x2f4 /usr/local/gcc-arm-none-eabi-5_4-2016q3/bin/../lib/gcc/arm-none-eabi/5.4.1/armv7e-m/fpu/libgcc.a(unwind-arm.o)
 .ARM.attributes
                0x00000000       0x34 /usr/local/gcc-arm-none-eabi-5_4-2016q3/bin/../lib/gcc/arm-none-eabi/5.4.1/armv7e-m/fpu/libgcc.a(unwind-arm.o)
 .data          0x00000000        0x0 /usr/local/gcc-arm-none-eabi-5_4-2016q3/bin/../lib/gcc/arm-none-eabi/5.4.1/armv7e-m/fpu/libgcc.a(libunwind.o)
 .bss           0x00000000        0x0 /usr/local/gcc-arm-none-eabi-5_4-2016q3/bin/../lib/gcc/arm-none-eabi/5.4.1/armv7e-m/fpu/libgcc.a(libunwind.o)
 .ARM.attributes
                0x00000000       0x22 /usr/local/gcc-arm-none-eabi-5_4-2016q3/bin/../lib/gcc/arm-none-eabi/5.4.1/armv7e-m/fpu/libgcc.a(libunwind.o)
 .data          0x00000000        0x0 /usr/local/gcc-arm-none-eabi-5_4-2016q3/bin/../lib/gcc/arm-none-eabi/5.4.1/armv7e-m/fpu/libgcc.a(pr-support.o)
 .bss           0x00000000        0x0 /usr/local/gcc-arm-none-eabi-5_4-2016q3/bin/../lib/gcc/arm-none-eabi/5.4.1/armv7e-m/fpu/libgcc.a(pr-support.o)
 .debug_frame   0x00000000      0x104 /usr/local/gcc-arm-none-eabi-5_4-2016q3/bin/../lib/gcc/arm-none-eabi/5.4.1/armv7e-m/fpu/libgcc.a(pr-support.o)
 .ARM.attributes
                0x00000000       0x34 /usr/local/gcc-arm-none-eabi-5_4-2016q3/bin/../lib/gcc/arm-none-eabi/5.4.1/armv7e-m/fpu/libgcc.a(pr-support.o)

Memory Configuration

Name             Origin             Length             Attributes
FLASH            0x08000000         0x0003f000         xr
FLASH_CONFIG     0x0803f000         0x00001000         r
RAM              0x20000000         0x0000a000         xrw
MEMORY_B1        0x60000000         0x00000000         xr
*default*        0x00000000         0xffffffff

Linker script and memory map

LOAD obj/MPU6050_raw/timer.o
LOAD /tmp/ccm9M6LD.ltrans0.ltrans.o
LOAD /tmp/ccm9M6LD.ltrans1.ltrans.o
LOAD /tmp/ccm9M6LD.ltrans2.ltrans.o
LOAD /tmp/ccm9M6LD.ltrans3.ltrans.o
LOAD /tmp/ccm9M6LD.ltrans4.ltrans.o
LOAD obj/MPU6050_raw/timer_stm32f30x.o
LOAD obj/MPU6050_raw/serial_usb_vcp.o
LOAD obj/MPU6050_raw/startup_stm32f30x_md_gcc.o
LOAD obj/MPU6050_raw/target/system_stm32f30x.o
LOAD obj/MPU6050_raw/gpio_stm32f30x.o
LOAD obj/MPU6050_raw/light_led_stm32f30x.o
LOAD obj/MPU6050_raw/serial_uart.o
LOAD obj/MPU6050_raw/serial_uart_stm32f30x.o
LOAD obj/MPU6050_raw/system_stm32f30x.o
LOAD obj/MPU6050_raw/exti.o
LOAD obj/MPU6050_raw/io.o
LOAD obj/MPU6050_raw/dma.o
LOAD obj/MPU6050_raw/serial.o
LOAD obj/MPU6050_raw/system.o
LOAD obj/MPU6050_raw/stm32f30x_gpio.o
LOAD obj/MPU6050_raw/stm32f30x_rcc.o
LOAD obj/MPU6050_raw/stm32f30x_adc.o
LOAD obj/MPU6050_raw/stm32f30x_comp.o
LOAD obj/MPU6050_raw/stm32f30x_dac.o
LOAD obj/MPU6050_raw/stm32f30x_dbgmcu.o
LOAD obj/MPU6050_raw/stm32f30x_dma.o
LOAD obj/MPU6050_raw/stm32f30x_exti.o
LOAD obj/MPU6050_raw/stm32f30x_flash.o
LOAD obj/MPU6050_raw/stm32f30x_hrtim.o
LOAD obj/MPU6050_raw/stm32f30x_i2c.o
LOAD obj/MPU6050_raw/stm32f30x_iwdg.o
LOAD obj/MPU6050_raw/stm32f30x_misc.o
LOAD obj/MPU6050_raw/stm32f30x_opamp.o
LOAD obj/MPU6050_raw/stm32f30x_pwr.o
LOAD obj/MPU6050_raw/stm32f30x_rtc.o
LOAD obj/MPU6050_raw/stm32f30x_spi.o
LOAD obj/MPU6050_raw/stm32f30x_syscfg.o
LOAD obj/MPU6050_raw/stm32f30x_tim.o
LOAD obj/MPU6050_raw/stm32f30x_usart.o
LOAD obj/MPU6050_raw/stm32f30x_wwdg.o
LOAD obj/MPU6050_raw/usb_core.o
LOAD obj/MPU6050_raw/usb_init.o
LOAD obj/MPU6050_raw/usb_int.o
LOAD obj/MPU6050_raw/usb_mem.o
LOAD obj/MPU6050_raw/usb_regs.o
LOAD obj/MPU6050_raw/usb_sil.o
LOAD obj/MPU6050_raw/vcp/hw_config.o
LOAD obj/MPU6050_raw/vcp/stm32_it.o
LOAD obj/MPU6050_raw/vcp/usb_desc.o
LOAD obj/MPU6050_raw/vcp/usb_endp.o
LOAD obj/MPU6050_raw/vcp/usb_istr.o
LOAD obj/MPU6050_raw/vcp/usb_prop.o
LOAD obj/MPU6050_raw/vcp/usb_pwr.o
LOAD obj/MPU6050_raw/usb_io.o
LOAD obj/MPU6050_raw/Arduino.o
LOAD obj/MPU6050_raw/HardwareWire.o
LOAD obj/MPU6050_raw/MPU6050.o
LOAD obj/MPU6050_raw.o
LOAD /usr/local/gcc-arm-none-eabi-5_4-2016q3/bin/../lib/gcc/arm-none-eabi/5.4.1/../../../../arm-none-eabi/lib/armv7e-m/fpu/libnosys.a
LOAD /usr/local/gcc-arm-none-eabi-5_4-2016q3/bin/../lib/gcc/arm-none-eabi/5.4.1/../../../../arm-none-eabi/lib/armv7e-m/fpu/libstdc++_nano.a
LOAD /usr/local/gcc-arm-none-eabi-5_4-2016q3/bin/../lib/gcc/arm-none-eabi/5.4.1/../../../../arm-none-eabi/lib/armv7e-m/fpu/libm.a
LOAD /usr/local/gcc-arm-none-eabi-5_4-2016q3/bin/../lib/gcc/arm-none-eabi/5.4.1/../../../../arm-none-eabi/lib/armv7e-m/fpu/libc_nano.a
START GROUP
LOAD /usr/local/gcc-arm-none-eabi-5_4-2016q3/bin/../lib/gcc/arm-none-eabi/5.4.1/armv7e-m/fpu/libgcc.a
LOAD /usr/local/gcc-arm-none-eabi-5_4-2016q3/bin/../lib/gcc/arm-none-eabi/5.4.1/../../../../arm-none-eabi/lib/armv7e-m/fpu/libg_nano.a
LOAD /usr/local/gcc-arm-none-eabi-5_4-2016q3/bin/../lib/gcc/arm-none-eabi/5.4.1/../../../../arm-none-eabi/lib/armv7e-m/fpu/libc_nano.a
END GROUP
START GROUP
LOAD /usr/local/gcc-arm-none-eabi-5_4-2016q3/bin/../lib/gcc/arm-none-eabi/5.4.1/armv7e-m/fpu/libgcc.a
LOAD /usr/local/gcc-arm-none-eabi-5_4-2016q3/bin/../lib/gcc/arm-none-eabi/5.4.1/../../../../arm-none-eabi/lib/armv7e-m/fpu/libc_nano.a
END GROUP
                0x2000a000                _estack = (ORIGIN (RAM) + LENGTH (RAM))
                0x0803f000                __config_start = (ORIGIN (FLASH) + LENGTH (FLASH))
                0x08040000                __config_end = (ORIGIN (FLASH_CONFIG) + LENGTH (FLASH_CONFIG))
                0x00000000                _Min_Heap_Size = 0x0
                0x00000400                _Min_Stack_Size = 0x400

.isr_vector     0x08000000      0x188
                0x08000000                . = ALIGN (0x4)
                [!provide]                PROVIDE (isr_vector_table_base, .)
 *(.isr_vector)
 .isr_vector    0x08000000      0x188 obj/MPU6050_raw/startup_stm32f30x_md_gcc.o
                0x08000000                g_pfnVectors
                0x08000188                . = ALIGN (0x4)

.text           0x08000190     0x3ba0
                0x08000190                . = ALIGN (0x4)
 *(.text)
 .text          0x08000190      0x858 /tmp/ccm9M6LD.ltrans1.ltrans.o
                0x08000190                Standard_GetStatus
                0x08000224                Standard_GetInterface
                0x08000248                Standard_GetConfiguration
                0x080002f0                usbTxBytesFree
                0x080002f4                usbVcpBeginWrite.lto_priv.51
                0x080002fc                usbVcpAvailable.lto_priv.45
                0x08000308                isUsbVcpTransmitBufferEmpty.lto_priv.48
                0x0800030c                usbVcpSetMode.lto_priv.49
                0x0800030e                usbVcpSetBaudRate.lto_priv.47
                0x08000310                usbVcpRead.lto_priv.46
                0x080004c4                usbVcpEndWrite.lto_priv.52
                0x080004cc                usbVcpWrite.lto_priv.44
                0x080004ec                usbVcpWriteBuf.lto_priv.50
                0x08000540                Post0_Process
                0x08000580                DataStageIn.lto_priv.54
                0x08000658                Standard_ClearFeature
                0x08000778                GPIO_Init
                0x08000802                micros
                0x08000838                SysTick_Handler
                0x08000848                DMA2_Channel5_IRQHandler
                0x08000850                DMA2_Channel4_IRQHandler
                0x08000858                DMA2_Channel3_IRQHandler
                0x08000860                DMA2_Channel2_IRQHandler
                0x08000868                DMA2_Channel1_IRQHandler
                0x08000870                DMA1_Channel7_IRQHandler
                0x08000878                DMA1_Channel6_IRQHandler
                0x08000880                DMA1_Channel5_IRQHandler
                0x08000888                DMA1_Channel4_IRQHandler
                0x08000890                DMA1_Channel3_IRQHandler
                0x08000898                DMA1_Channel2_IRQHandler
                0x080008a0                DMA1_Channel1_IRQHandler
                0x080008a8                EXTI15_10_IRQHandler
                0x080008aa                EXTI0_IRQHandler
                0x080008ac                EXTI9_5_IRQHandler
                0x080008ae                EXTI4_IRQHandler
                0x080008b0                EXTI3_IRQHandler
                0x080008b2                EXTI2_TS_IRQHandler
                0x080008b4                EXTI1_IRQHandler
                0x080008b6                USART3_IRQHandler
                0x080008c0                USART2_IRQHandler
                0x080008c8                USART1_IRQHandler
                0x080008d0                gpioInit
                0x08000924                SystemInit
                0x0800098c                TIM1_TRG_COM_TIM17_IRQHandler
                0x0800099c                TIM1_BRK_TIM15_IRQHandler
                0x080009ac                TIM3_IRQHandler
                0x080009bc                TIM2_IRQHandler
                0x080009c8                TIM1_UP_TIM16_IRQHandler
                0x080009d8                TIM1_CC_IRQHandler
 .text          0x080009e8      0x8c0 /tmp/ccm9M6LD.ltrans2.ltrans.o
                0x080009e8                dmaInit
                0x080009e8                NOP_Process
                0x080009ea                PendSV_Handler
                0x080009ec                DebugMon_Handler
                0x080009ee                SVC_Handler
                0x080009f0                UsageFault_Handler
                0x080009f2                BusFault_Handler
                0x080009f4                MemManage_Handler
                0x080009f6                NMI_Handler
                0x080009f8                IntToUnicode.lto_priv.53
                0x08000a20                SetEPRxCount
                0x08000a64                SetEPTxCount
                0x08000a84                CDC_Send_DATA.part.0
                0x08000ae4                SetDeviceAddress
                0x08000b1c                USB_LP_CAN1_RX0_IRQHandler
 .text          0x080012a8      0x438 /tmp/ccm9M6LD.ltrans3.ltrans.o
                0x080012c2                Virtual_Com_Port_Get_Interface_Setting
                0x080012d2                Virtual_Com_Port_GetStringDescriptor
                0x08001304                Virtual_Com_Port_GetConfigDescriptor
                0x08001324                Virtual_Com_Port_GetDeviceDescriptor
                0x08001344                Virtual_Com_Port_NoData_Setup
                0x08001368                Virtual_Com_Port_Data_Setup
                0x080013c4                Virtual_Com_Port_Status_Out
                0x080013c6                Virtual_Com_Port_Status_In
                0x080013d8                Virtual_Com_Port_SetDeviceAddress
                0x080013e4                Virtual_Com_Port_SetConfiguration
                0x080013fc                EP3_OUT_Callback
                0x08001448                EP1_IN_Callback
                0x08001454                Virtual_Com_Port_Reset
                0x08001624                Virtual_Com_Port_init
                0x08001698                USBWakeUp_IRQHandler
                0x080016a8                Resume_Init
 .text          0x080016e0      0x29c /tmp/ccm9M6LD.ltrans4.ltrans.o
                0x080016e0                NVIC_Init.part.0.constprop.37
                0x08001720                HardwareSerial::printf(char const*, ...) [clone .constprop.12]
                0x0800176c                MPU6050::readBytes(unsigned char, unsigned char, unsigned char*)
                0x08001898                MPU6050::writeByte(unsigned char, unsigned char)
                0x08001978                HardFault_Handler
 *fill*         0x0800197c        0x4 
 .text          0x08001980       0xa0 /usr/local/gcc-arm-none-eabi-5_4-2016q3/bin/../lib/gcc/arm-none-eabi/5.4.1/../../../../arm-none-eabi/lib/armv7e-m/fpu/libc_nano.a(lib_a-memchr.o)
                0x08001980                memchr
 .text          0x08001a20      0x9dc /usr/local/gcc-arm-none-eabi-5_4-2016q3/bin/../lib/gcc/arm-none-eabi/5.4.1/armv7e-m/fpu/libgcc.a(unwind-arm.o)
                0x08001cdc                _Unwind_GetCFA
                0x08001ce0                __gnu_Unwind_RaiseException
                0x08001d40                __gnu_Unwind_ForcedUnwind
                0x08001d54                __gnu_Unwind_Resume
                0x08001d98                __gnu_Unwind_Resume_or_Rethrow
                0x08001da8                _Unwind_Complete
                0x08001dac                _Unwind_DeleteException
                0x08001db8                _Unwind_VRS_Get
                0x08001e04                _Unwind_VRS_Set
                0x08001e54                __gnu_Unwind_Backtrace
                0x080021a0                __aeabi_unwind_cpp_pr0
                0x080021a4                __aeabi_unwind_cpp_pr1
                0x080021a8                __aeabi_unwind_cpp_pr2
                0x080021ac                _Unwind_VRS_Pop
 .text          0x080023fc      0x1ac /usr/local/gcc-arm-none-eabi-5_4-2016q3/bin/../lib/gcc/arm-none-eabi/5.4.1/armv7e-m/fpu/libgcc.a(libunwind.o)
                0x080023fc                __restore_core_regs
                0x080023fc                restore_core_regs
                0x08002414                __gnu_Unwind_Restore_VFP
                0x0800241c                __gnu_Unwind_Save_VFP
                0x08002424                __gnu_Unwind_Restore_VFP_D
                0x0800242c                __gnu_Unwind_Save_VFP_D
                0x08002434                __gnu_Unwind_Restore_VFP_D_16_to_31
                0x0800243c                __gnu_Unwind_Save_VFP_D_16_to_31
                0x08002444                __gnu_Unwind_Restore_WMMXD
                0x08002488                __gnu_Unwind_Save_WMMXD
                0x080024cc                __gnu_Unwind_Restore_WMMXC
                0x080024e0                __gnu_Unwind_Save_WMMXC
                0x080024f4                ___Unwind_RaiseException
                0x080024f4                _Unwind_RaiseException
                0x08002518                ___Unwind_Resume
                0x08002518                _Unwind_Resume
                0x0800253c                _Unwind_Resume_or_Rethrow
                0x0800253c                ___Unwind_Resume_or_Rethrow
                0x08002560                ___Unwind_ForcedUnwind
                0x08002560                _Unwind_ForcedUnwind
                0x08002584                _Unwind_Backtrace
                0x08002584                ___Unwind_Backtrace
 .text          0x080025a8      0x354 /usr/local/gcc-arm-none-eabi-5_4-2016q3/bin/../lib/gcc/arm-none-eabi/5.4.1/armv7e-m/fpu/libgcc.a(pr-support.o)
                0x08002600                __gnu_unwind_execute
                0x080028a4                __gnu_unwind_frame
                0x080028cc                _Unwind_GetRegionStart
                0x080028d8                _Unwind_GetLanguageSpecificData
                0x080028ec                _Unwind_GetTextRelBase
                0x080028f4                _Unwind_GetDataRelBase
 *(.text*)
 .text.startup  0x080028fc      0x818 /tmp/ccm9M6LD.ltrans0.ltrans.o
                0x080028fc                main
 .text.Reset_Handler
                0x08003114       0x68 obj/MPU6050_raw/startup_stm32f30x_md_gcc.o
                0x08003114                Reset_Handler
 .text.Default_Handler
                0x0800317c        0x2 obj/MPU6050_raw/startup_stm32f30x_md_gcc.o
                0x0800317c                RTC_Alarm_IRQHandler
                0x0800317c                TIM8_TRG_COM_IRQHandler
                0x0800317c                TIM8_CC_IRQHandler
                0x0800317c                USB_HP_IRQHandler
                0x0800317c                PVD_IRQHandler
                0x0800317c                I2C2_EV_IRQHandler
                0x0800317c                FPU_IRQHandler
                0x0800317c                ADC1_2_IRQHandler
                0x0800317c                SPI1_IRQHandler
                0x0800317c                TIM6_DAC_IRQHandler
                0x0800317c                TIM8_UP_IRQHandler
                0x0800317c                CAN1_RX1_IRQHandler
                0x0800317c                UART5_IRQHandler
                0x0800317c                ADC3_IRQHandler
                0x0800317c                TIM4_IRQHandler
                0x0800317c                I2C1_EV_IRQHandler
                0x0800317c                UART4_IRQHandler
                0x0800317c                RCC_IRQHandler
                0x0800317c                Default_Handler
                0x0800317c                USBWakeUp_RMP_IRQHandler
                0x0800317c                TIM7_IRQHandler
                0x0800317c                TAMPER_STAMP_IRQHandler
                0x0800317c                RTC_WKUP_IRQHandler
                0x0800317c                SPI2_IRQHandler
                0x0800317c                USB_LP_IRQHandler
                0x0800317c                USB_HP_CAN1_TX_IRQHandler
                0x0800317c                ADC4_IRQHandler
                0x0800317c                WWDG_IRQHandler
                0x0800317c                COMP7_IRQHandler
                0x0800317c                COMP1_2_3_IRQHandler
                0x0800317c                COMP4_5_6_IRQHandler
                0x0800317c                I2C2_ER_IRQHandler
                0x0800317c                TIM8_BRK_IRQHandler
                0x0800317c                CAN1_SCE_IRQHandler
                0x0800317c                FLASH_IRQHandler
                0x0800317c                SPI3_IRQHandler
                0x0800317c                I2C1_ER_IRQHandler
 .text._Znwj    0x0800317e       0x22 /usr/local/gcc-arm-none-eabi-5_4-2016q3/bin/../lib/gcc/arm-none-eabi/5.4.1/../../../../arm-none-eabi/lib/armv7e-m/fpu/libstdc++_nano.a(new_op.o)
                0x0800317e                operator new(unsigned int)
 .text._ZSt15get_new_handlerv
                0x080031a0       0x10 /usr/local/gcc-arm-none-eabi-5_4-2016q3/bin/../lib/gcc/arm-none-eabi/5.4.1/../../../../arm-none-eabi/lib/armv7e-m/fpu/libstdc++_nano.a(new_handler.o)
                0x080031a0                std::get_new_handler()
 .text.abort    0x080031b0        0xe /usr/local/gcc-arm-none-eabi-5_4-2016q3/bin/../lib/gcc/arm-none-eabi/5.4.1/../../../../arm-none-eabi/lib/armv7e-m/fpu/libc_nano.a(lib_a-abort.o)
                0x080031b0                abort
 *fill*         0x080031be        0x2 
 .text.malloc   0x080031c0       0x10 /usr/local/gcc-arm-none-eabi-5_4-2016q3/bin/../lib/gcc/arm-none-eabi/5.4.1/../../../../arm-none-eabi/lib/armv7e-m/fpu/libc_nano.a(lib_a-malloc.o)
                0x080031c0                malloc
 .text._free_r  0x080031d0       0x9c /usr/local/gcc-arm-none-eabi-5_4-2016q3/bin/../lib/gcc/arm-none-eabi/5.4.1/../../../../arm-none-eabi/lib/armv7e-m/fpu/libc_nano.a(lib_a-nano-freer.o)
                0x080031d0                _free_r
 .text._malloc_r
                0x0800326c       0xbc /usr/local/gcc-arm-none-eabi-5_4-2016q3/bin/../lib/gcc/arm-none-eabi/5.4.1/../../../../arm-none-eabi/lib/armv7e-m/fpu/libc_nano.a(lib_a-nano-mallocr.o)
                0x0800326c                _malloc_r
 .text._sbrk_r  0x08003328       0x20 /usr/local/gcc-arm-none-eabi-5_4-2016q3/bin/../lib/gcc/arm-none-eabi/5.4.1/../../../../arm-none-eabi/lib/armv7e-m/fpu/libc_nano.a(lib_a-sbrkr.o)
                0x08003328                _sbrk_r
 .text._raise_r
                0x08003348       0x54 /usr/local/gcc-arm-none-eabi-5_4-2016q3/bin/../lib/gcc/arm-none-eabi/5.4.1/../../../../arm-none-eabi/lib/armv7e-m/fpu/libc_nano.a(lib_a-signal.o)
                0x08003348                _raise_r
 .text.raise    0x0800339c       0x10 /usr/local/gcc-arm-none-eabi-5_4-2016q3/bin/../lib/gcc/arm-none-eabi/5.4.1/../../../../arm-none-eabi/lib/armv7e-m/fpu/libc_nano.a(lib_a-signal.o)
                0x0800339c                raise
 .text._kill_r  0x080033ac       0x24 /usr/local/gcc-arm-none-eabi-5_4-2016q3/bin/../lib/gcc/arm-none-eabi/5.4.1/../../../../arm-none-eabi/lib/armv7e-m/fpu/libc_nano.a(lib_a-signalr.o)
                0x080033ac                _kill_r
 .text._getpid_r
                0x080033d0        0x4 /usr/local/gcc-arm-none-eabi-5_4-2016q3/bin/../lib/gcc/arm-none-eabi/5.4.1/../../../../arm-none-eabi/lib/armv7e-m/fpu/libc_nano.a(lib_a-signalr.o)
                0x080033d0                _getpid_r
 .text.__malloc_lock
                0x080033d4        0x2 /usr/local/gcc-arm-none-eabi-5_4-2016q3/bin/../lib/gcc/arm-none-eabi/5.4.1/../../../../arm-none-eabi/lib/armv7e-m/fpu/libc_nano.a(lib_a-mlock.o)
                0x080033d4                __malloc_lock
 .text.__malloc_unlock
                0x080033d6        0x2 /usr/local/gcc-arm-none-eabi-5_4-2016q3/bin/../lib/gcc/arm-none-eabi/5.4.1/../../../../arm-none-eabi/lib/armv7e-m/fpu/libc_nano.a(lib_a-mlock.o)
                0x080033d6                __malloc_unlock
 .text._getpid  0x080033d8       0x10 /usr/local/gcc-arm-none-eabi-5_4-2016q3/bin/../lib/gcc/arm-none-eabi/5.4.1/../../../../arm-none-eabi/lib/armv7e-m/fpu/libnosys.a(getpid.o)
                0x080033d8                _getpid
 .text._kill    0x080033e8       0x10 /usr/local/gcc-arm-none-eabi-5_4-2016q3/bin/../lib/gcc/arm-none-eabi/5.4.1/../../../../arm-none-eabi/lib/armv7e-m/fpu/libnosys.a(kill.o)
                0x080033e8                _kill
 .text._sbrk    0x080033f8       0x1c /usr/local/gcc-arm-none-eabi-5_4-2016q3/bin/../lib/gcc/arm-none-eabi/5.4.1/../../../../arm-none-eabi/lib/armv7e-m/fpu/libnosys.a(sbrk.o)
                0x080033f8                _sbrk
 .text._exit    0x08003414        0x4 /usr/local/gcc-arm-none-eabi-5_4-2016q3/bin/../lib/gcc/arm-none-eabi/5.4.1/../../../../arm-none-eabi/lib/armv7e-m/fpu/libnosys.a(_exit.o)
                0x08003414                _exit
 .text.memset   0x08003418       0x10 /usr/local/gcc-arm-none-eabi-5_4-2016q3/bin/../lib/gcc/arm-none-eabi/5.4.1/../../../../arm-none-eabi/lib/armv7e-m/fpu/libc_nano.a(lib_a-memset.o)
                0x08003418                memset
 .text._vsprintf_r
                0x08003428       0x30 /usr/local/gcc-arm-none-eabi-5_4-2016q3/bin/../lib/gcc/arm-none-eabi/5.4.1/../../../../arm-none-eabi/lib/armv7e-m/fpu/libc_nano.a(lib_a-vsprintf.o)
                0x08003428                _vsiprintf_r
                0x08003428                _vsprintf_r
 .text.vsprintf
                0x08003458       0x14 /usr/local/gcc-arm-none-eabi-5_4-2016q3/bin/../lib/gcc/arm-none-eabi/5.4.1/../../../../arm-none-eabi/lib/armv7e-m/fpu/libc_nano.a(lib_a-vsprintf.o)
                0x08003458                vsprintf
                0x08003458                vsiprintf
 .text.__ssputs_r
                0x0800346c       0xb2 /usr/local/gcc-arm-none-eabi-5_4-2016q3/bin/../lib/gcc/arm-none-eabi/5.4.1/../../../../arm-none-eabi/lib/armv7e-m/fpu/libc_nano.a(lib_a-nano-svfprintf.o)
                0x0800346c                __ssputs_r
 *fill*         0x0800351e        0x2 
 .text._svfprintf_r
                0x08003520      0x1e8 /usr/local/gcc-arm-none-eabi-5_4-2016q3/bin/../lib/gcc/arm-none-eabi/5.4.1/../../../../arm-none-eabi/lib/armv7e-m/fpu/libc_nano.a(lib_a-nano-svfprintf.o)
                0x08003520                _svfprintf_r
                0x08003520                _svfiprintf_r
 .text._printf_common
                0x08003708       0xec /usr/local/gcc-arm-none-eabi-5_4-2016q3/bin/../lib/gcc/arm-none-eabi/5.4.1/../../../../arm-none-eabi/lib/armv7e-m/fpu/libc_nano.a(lib_a-nano-vfprintf_i.o)
                0x08003708                _printf_common
 .text._printf_i
                0x080037f4      0x24c /usr/local/gcc-arm-none-eabi-5_4-2016q3/bin/../lib/gcc/arm-none-eabi/5.4.1/../../../../arm-none-eabi/lib/armv7e-m/fpu/libc_nano.a(lib_a-nano-vfprintf_i.o)
                0x080037f4                _printf_i
 .text.memcpy   0x08003a40       0x16 /usr/local/gcc-arm-none-eabi-5_4-2016q3/bin/../lib/gcc/arm-none-eabi/5.4.1/../../../../arm-none-eabi/lib/armv7e-m/fpu/libc_nano.a(lib_a-memcpy-stub.o)
                0x08003a40                memcpy
 .text.memmove  0x08003a56       0x36 /usr/local/gcc-arm-none-eabi-5_4-2016q3/bin/../lib/gcc/arm-none-eabi/5.4.1/../../../../arm-none-eabi/lib/armv7e-m/fpu/libc_nano.a(lib_a-memmove.o)
                0x08003a56                memmove
 .text._realloc_r
                0x08003a8c       0x4c /usr/local/gcc-arm-none-eabi-5_4-2016q3/bin/../lib/gcc/arm-none-eabi/5.4.1/../../../../arm-none-eabi/lib/armv7e-m/fpu/libc_nano.a(lib_a-nano-reallocr.o)
                0x08003a8c                _realloc_r
 .text._malloc_usable_size_r
                0x08003ad8       0x14 /usr/local/gcc-arm-none-eabi-5_4-2016q3/bin/../lib/gcc/arm-none-eabi/5.4.1/../../../../arm-none-eabi/lib/armv7e-m/fpu/libc_nano.a(lib_a-nano-msizer.o)
                0x08003ad8                _malloc_usable_size_r
 *(.rodata)
 .rodata        0x08003aec       0xe4 /tmp/ccm9M6LD.ltrans0.ltrans.o
 .rodata        0x08003bd0       0x3a /tmp/ccm9M6LD.ltrans2.ltrans.o
                0x08003c08                Device_Table
 .rodata        0x08003c0a       0xb1 /tmp/ccm9M6LD.ltrans3.ltrans.o
 *(.rodata*)
 .rodata.str1.1
                0x08003cbb       0x41 /tmp/ccm9M6LD.ltrans0.ltrans.o
 .rodata.str1.1
                0x08003cfc       0x11 /usr/local/gcc-arm-none-eabi-5_4-2016q3/bin/../lib/gcc/arm-none-eabi/5.4.1/../../../../arm-none-eabi/lib/armv7e-m/fpu/libc_nano.a(lib_a-nano-svfprintf.o)
 .rodata.str1.1
                0x08003d0d       0x22 /usr/local/gcc-arm-none-eabi-5_4-2016q3/bin/../lib/gcc/arm-none-eabi/5.4.1/../../../../arm-none-eabi/lib/armv7e-m/fpu/libc_nano.a(lib_a-nano-vfprintf_i.o)
 *(.glue_7)
 .glue_7        0x08003d2f        0x0 linker stubs
 *(.glue_7t)
 .glue_7t       0x08003d2f        0x0 linker stubs
 *(.eh_frame)
 *(.init)
 *(.fini)
                0x08003d30                . = ALIGN (0x4)
 *fill*         0x08003d2f        0x1 
                0x08003d30                _etext = .

.vfp11_veneer   0x08003d30        0x0
 .vfp11_veneer  0x08003d30        0x0 linker stubs

.v4_bx          0x08003d30        0x0
 .v4_bx         0x08003d30        0x0 linker stubs

.iplt           0x08003d30        0x0
 .iplt          0x08003d30        0x0 obj/MPU6050_raw/startup_stm32f30x_md_gcc.o

.ARM.extab      0x08003d30       0x18
 *(.ARM.extab* .gnu.linkonce.armextab.*)
 .ARM.extab     0x08003d30       0x18 /usr/local/gcc-arm-none-eabi-5_4-2016q3/bin/../lib/gcc/arm-none-eabi/5.4.1/armv7e-m/fpu/libgcc.a(pr-support.o)

.ARM            0x08003d48       0xc8
                0x08003d48                __exidx_start = .
 *(.ARM.exidx*)
 .ARM.exidx.text.startup
                0x08003e00       0x10 /tmp/ccm9M6LD.ltrans0.ltrans.o
                                  0x8 (size before relaxing)
 .ARM.exidx     0x08003d48        0x8 /tmp/ccm9M6LD.ltrans4.ltrans.o
                                 0x20 (size before relaxing)
 .ARM.exidx     0x08003d50       0x78 /usr/local/gcc-arm-none-eabi-5_4-2016q3/bin/../lib/gcc/arm-none-eabi/5.4.1/armv7e-m/fpu/libgcc.a(unwind-arm.o)
                                 0xd8 (size before relaxing)
 .ARM.exidx     0x08003dc8       0x38 /usr/local/gcc-arm-none-eabi-5_4-2016q3/bin/../lib/gcc/arm-none-eabi/5.4.1/armv7e-m/fpu/libgcc.a(pr-support.o)
                                 0x48 (size before relaxing)
                0x08003e10                __exidx_end = .

.rel.dyn        0x08003e10        0x0
 .rel.iplt      0x08003e10        0x0 obj/MPU6050_raw/startup_stm32f30x_md_gcc.o

.preinit_array  0x08003e10        0x0
                [!provide]                PROVIDE (__preinit_array_start, .)
 *(.preinit_array*)
                [!provide]                PROVIDE (__preinit_array_end, .)

.init_array     0x08003e10        0x0
                [!provide]                PROVIDE (__init_array_start, .)
 *(SORT(.init_array.*))
 *(.init_array*)
                [!provide]                PROVIDE (__init_array_end, .)

.fini_array     0x08003e10        0x0
                [!provide]                PROVIDE (__fini_array_start, .)
 *(.fini_array*)
 *(SORT(.fini_array.*))
                [!provide]                PROVIDE (__fini_array_end, .)

.pg_registry    0x08003e10        0x0
                [!provide]                PROVIDE (__pg_registry_start, .)
 *(.pg_registry)
 *(SORT(.pg_registry.*))
                [!provide]                PROVIDE (__pg_registry_end, .)

.pg_resetdata   0x08003e10        0x0
                [!provide]                PROVIDE (__pg_resetdata_start, .)
 *(.pg_resetdata)
                [!provide]                PROVIDE (__pg_resetdata_end, .)
                0x08003e10                _sidata = .

.data           0x20000000      0x240 load address 0x08003e10
                0x20000000                . = ALIGN (0x4)
                0x20000000                _sdata = .
 *(.data)
 .data          0x20000000       0x84 /tmp/ccm9M6LD.ltrans0.ltrans.o
                0x20000030                Device_Property
 .data          0x20000084      0x101 /tmp/ccm9M6LD.ltrans1.ltrans.o
 *fill*         0x20000185        0x3 
 .data          0x20000188       0x52 /tmp/ccm9M6LD.ltrans3.ltrans.o
 *(.data*)
 *fill*         0x200001da        0x2 
 .data.impure_data
                0x200001dc       0x60 /usr/local/gcc-arm-none-eabi-5_4-2016q3/bin/../lib/gcc/arm-none-eabi/5.4.1/../../../../arm-none-eabi/lib/armv7e-m/fpu/libc_nano.a(lib_a-impure.o)
 .data._impure_ptr
                0x2000023c        0x4 /usr/local/gcc-arm-none-eabi-5_4-2016q3/bin/../lib/gcc/arm-none-eabi/5.4.1/../../../../arm-none-eabi/lib/armv7e-m/fpu/libc_nano.a(lib_a-impure.o)
                0x2000023c                _impure_ptr
                0x20000240                . = ALIGN (0x4)
                0x20000240                _edata = .

.igot.plt       0x20000240        0x0 load address 0x08004050
 .igot.plt      0x20000240        0x0 obj/MPU6050_raw/startup_stm32f30x_md_gcc.o
                0x20000240                . = ALIGN (0x4)

.bss            0x20000240      0xbdc load address 0x08004050
                0x20000240                _sbss = .
                0x20000240                __bss_start__ = _sbss
 *(.bss)
 .bss           0x20000240      0x2f4 /tmp/ccm9M6LD.ltrans0.ltrans.o
                0x200003e0                usTicks.lto_priv.56
                0x200003e4                timerConfig
                0x200004b4                pInformation
                0x200004b8                Device_Info
                0x200004d4                pProperty
                0x200004d8                pUser_Standard_Requests
                0x2000052c                sysTickUptime.lto_priv.55
 .bss           0x20000534      0x75c /tmp/ccm9M6LD.ltrans1.ltrans.o
 .bss           0x20000c90       0x10 /tmp/ccm9M6LD.ltrans2.ltrans.o
                0x20000c94                SaveRState
                0x20000c96                SaveTState
                0x20000c98                Data_Mul_MaxPacketSize
 .bss           0x20000ca0       0x52 /tmp/ccm9M6LD.ltrans3.ltrans.o
                0x20000ca4                bDeviceState
                0x20000ca8                receiveLength
                0x20000cac                receiveBuffer
                0x20000cec                packetSent
                0x20000cf0                wInterrupt_Mask
 *fill*         0x20000cf2        0x2 
 .bss           0x20000cf4      0x114 /tmp/ccm9M6LD.ltrans4.ltrans.o
                0x20000cf4                Serial
                0x20000cf8                Wire
                0x20000e04                _ZL4I2Cx.lto_priv.43
 *(SORT(.bss*))
 .bss._ZN12_GLOBAL__N_113__new_handlerE
                0x20000e08        0x4 /usr/local/gcc-arm-none-eabi-5_4-2016q3/bin/../lib/gcc/arm-none-eabi/5.4.1/../../../../arm-none-eabi/lib/armv7e-m/fpu/libstdc++_nano.a(new_handler.o)
 .bss.__malloc_sbrk_start
                0x20000e0c        0x4 /usr/local/gcc-arm-none-eabi-5_4-2016q3/bin/../lib/gcc/arm-none-eabi/5.4.1/../../../../arm-none-eabi/lib/armv7e-m/fpu/libc_nano.a(lib_a-nano-mallocr.o)
                0x20000e0c                __malloc_sbrk_start
 .bss.__malloc_free_list
                0x20000e10        0x4 /usr/local/gcc-arm-none-eabi-5_4-2016q3/bin/../lib/gcc/arm-none-eabi/5.4.1/../../../../arm-none-eabi/lib/armv7e-m/fpu/libc_nano.a(lib_a-nano-mallocr.o)
                0x20000e10                __malloc_free_list
 .bss.heap_end.4169
                0x20000e14        0x4 /usr/local/gcc-arm-none-eabi-5_4-2016q3/bin/../lib/gcc/arm-none-eabi/5.4.1/../../../../arm-none-eabi/lib/armv7e-m/fpu/libnosys.a(sbrk.o)
 *(COMMON)
 COMMON         0x20000e18        0x4 /usr/local/gcc-arm-none-eabi-5_4-2016q3/bin/../lib/gcc/arm-none-eabi/5.4.1/../../../../arm-none-eabi/lib/armv7e-m/fpu/libc_nano.a(lib_a-reent.o)
                0x20000e18                errno
                0x20000e1c                . = ALIGN (0x4)
                0x20000e1c                _ebss = .
                0x20000e1c                __bss_end__ = _ebss

._user_heap_stack
                0x20000e1c      0x400 load address 0x08004050
                0x20000e1c                . = ALIGN (0x4)
                0x20000e1c                PROVIDE (end, .)
                [!provide]                PROVIDE (_end, .)
                0x20000e1c                . = (. + _Min_Heap_Size)
                0x2000121c                . = (. + _Min_Stack_Size)
 *fill*         0x20000e1c      0x400 
                0x2000121c                . = ALIGN (0x4)

.memory_b1_text
 *(.mb1text)
 *(.mb1text*)
 *(.mb1rodata)
 *(.mb1rodata*)

/DISCARD/
 libc.a(*)
 libm.a(*)
 libgcc.a(*)

.ARM.attributes
                0x00000000       0x37
 *(.ARM.attributes)
 .ARM.attributes
                0x00000000       0x37 /tmp/ccm9M6LD.ltrans0.ltrans.o
 .ARM.attributes
                0x00000037       0x37 /tmp/ccm9M6LD.ltrans1.ltrans.o
 .ARM.attributes
                0x0000006e       0x37 /tmp/ccm9M6LD.ltrans2.ltrans.o
 .ARM.attributes
                0x000000a5       0x37 /tmp/ccm9M6LD.ltrans3.ltrans.o
 .ARM.attributes
                0x000000dc       0x37 /tmp/ccm9M6LD.ltrans4.ltrans.o
 .ARM.attributes
                0x00000113       0x21 obj/MPU6050_raw/startup_stm32f30x_md_gcc.o
 .ARM.attributes
                0x00000134       0x34 /usr/local/gcc-arm-none-eabi-5_4-2016q3/bin/../lib/gcc/arm-none-eabi/5.4.1/../../../../arm-none-eabi/lib/armv7e-m/fpu/libstdc++_nano.a(new_op.o)
 .ARM.attributes
                0x00000168       0x34 /usr/local/gcc-arm-none-eabi-5_4-2016q3/bin/../lib/gcc/arm-none-eabi/5.4.1/../../../../arm-none-eabi/lib/armv7e-m/fpu/libstdc++_nano.a(new_handler.o)
 .ARM.attributes
                0x0000019c       0x34 /usr/local/gcc-arm-none-eabi-5_4-2016q3/bin/../lib/gcc/arm-none-eabi/5.4.1/../../../../arm-none-eabi/lib/armv7e-m/fpu/libc_nano.a(lib_a-abort.o)
 .ARM.attributes
                0x000001d0       0x34 /usr/local/gcc-arm-none-eabi-5_4-2016q3/bin/../lib/gcc/arm-none-eabi/5.4.1/../../../../arm-none-eabi/lib/armv7e-m/fpu/libc_nano.a(lib_a-malloc.o)
 .ARM.attributes
                0x00000204       0x34 /usr/local/gcc-arm-none-eabi-5_4-2016q3/bin/../lib/gcc/arm-none-eabi/5.4.1/../../../../arm-none-eabi/lib/armv7e-m/fpu/libc_nano.a(lib_a-nano-freer.o)
 .ARM.attributes
                0x00000238       0x34 /usr/local/gcc-arm-none-eabi-5_4-2016q3/bin/../lib/gcc/arm-none-eabi/5.4.1/../../../../arm-none-eabi/lib/armv7e-m/fpu/libc_nano.a(lib_a-nano-mallocr.o)
 .ARM.attributes
                0x0000026c       0x34 /usr/local/gcc-arm-none-eabi-5_4-2016q3/bin/../lib/gcc/arm-none-eabi/5.4.1/../../../../arm-none-eabi/lib/armv7e-m/fpu/libc_nano.a(lib_a-sbrkr.o)
 .ARM.attributes
                0x000002a0       0x34 /usr/local/gcc-arm-none-eabi-5_4-2016q3/bin/../lib/gcc/arm-none-eabi/5.4.1/../../../../arm-none-eabi/lib/armv7e-m/fpu/libc_nano.a(lib_a-signal.o)
 .ARM.attributes
                0x000002d4       0x34 /usr/local/gcc-arm-none-eabi-5_4-2016q3/bin/../lib/gcc/arm-none-eabi/5.4.1/../../../../arm-none-eabi/lib/armv7e-m/fpu/libc_nano.a(lib_a-signalr.o)
 .ARM.attributes
                0x00000308       0x34 /usr/local/gcc-arm-none-eabi-5_4-2016q3/bin/../lib/gcc/arm-none-eabi/5.4.1/../../../../arm-none-eabi/lib/armv7e-m/fpu/libc_nano.a(lib_a-impure.o)
 .ARM.attributes
                0x0000033c       0x34 /usr/local/gcc-arm-none-eabi-5_4-2016q3/bin/../lib/gcc/arm-none-eabi/5.4.1/../../../../arm-none-eabi/lib/armv7e-m/fpu/libc_nano.a(lib_a-mlock.o)
 .ARM.attributes
                0x00000370       0x34 /usr/local/gcc-arm-none-eabi-5_4-2016q3/bin/../lib/gcc/arm-none-eabi/5.4.1/../../../../arm-none-eabi/lib/armv7e-m/fpu/libc_nano.a(lib_a-reent.o)
 .ARM.attributes
                0x000003a4       0x34 /usr/local/gcc-arm-none-eabi-5_4-2016q3/bin/../lib/gcc/arm-none-eabi/5.4.1/../../../../arm-none-eabi/lib/armv7e-m/fpu/libnosys.a(getpid.o)
 .ARM.attributes
                0x000003d8       0x34 /usr/local/gcc-arm-none-eabi-5_4-2016q3/bin/../lib/gcc/arm-none-eabi/5.4.1/../../../../arm-none-eabi/lib/armv7e-m/fpu/libnosys.a(kill.o)
 .ARM.attributes
                0x0000040c       0x34 /usr/local/gcc-arm-none-eabi-5_4-2016q3/bin/../lib/gcc/arm-none-eabi/5.4.1/../../../../arm-none-eabi/lib/armv7e-m/fpu/libnosys.a(sbrk.o)
 .ARM.attributes
                0x00000440       0x34 /usr/local/gcc-arm-none-eabi-5_4-2016q3/bin/../lib/gcc/arm-none-eabi/5.4.1/../../../../arm-none-eabi/lib/armv7e-m/fpu/libnosys.a(_exit.o)
 .ARM.attributes
                0x00000474       0x34 /usr/local/gcc-arm-none-eabi-5_4-2016q3/bin/../lib/gcc/arm-none-eabi/5.4.1/../../../../arm-none-eabi/lib/armv7e-m/fpu/libc_nano.a(lib_a-memset.o)
 .ARM.attributes
                0x000004a8       0x34 /usr/local/gcc-arm-none-eabi-5_4-2016q3/bin/../lib/gcc/arm-none-eabi/5.4.1/../../../../arm-none-eabi/lib/armv7e-m/fpu/libc_nano.a(lib_a-vsprintf.o)
 .ARM.attributes
                0x000004dc       0x34 /usr/local/gcc-arm-none-eabi-5_4-2016q3/bin/../lib/gcc/arm-none-eabi/5.4.1/../../../../arm-none-eabi/lib/armv7e-m/fpu/libc_nano.a(lib_a-nano-svfprintf.o)
 .ARM.attributes
                0x00000510       0x34 /usr/local/gcc-arm-none-eabi-5_4-2016q3/bin/../lib/gcc/arm-none-eabi/5.4.1/../../../../arm-none-eabi/lib/armv7e-m/fpu/libc_nano.a(lib_a-nano-vfprintf_i.o)
 .ARM.attributes
                0x00000544       0x20 /usr/local/gcc-arm-none-eabi-5_4-2016q3/bin/../lib/gcc/arm-none-eabi/5.4.1/../../../../arm-none-eabi/lib/armv7e-m/fpu/libc_nano.a(lib_a-memchr.o)
 .ARM.attributes
                0x00000564       0x34 /usr/local/gcc-arm-none-eabi-5_4-2016q3/bin/../lib/gcc/arm-none-eabi/5.4.1/../../../../arm-none-eabi/lib/armv7e-m/fpu/libc_nano.a(lib_a-memcpy-stub.o)
 .ARM.attributes
                0x00000598       0x34 /usr/local/gcc-arm-none-eabi-5_4-2016q3/bin/../lib/gcc/arm-none-eabi/5.4.1/../../../../arm-none-eabi/lib/armv7e-m/fpu/libc_nano.a(lib_a-memmove.o)
 .ARM.attributes
                0x000005cc       0x34 /usr/local/gcc-arm-none-eabi-5_4-2016q3/bin/../lib/gcc/arm-none-eabi/5.4.1/../../../../arm-none-eabi/lib/armv7e-m/fpu/libc_nano.a(lib_a-nano-reallocr.o)
 .ARM.attributes
                0x00000600       0x34 /usr/local/gcc-arm-none-eabi-5_4-2016q3/bin/../lib/gcc/arm-none-eabi/5.4.1/../../../../arm-none-eabi/lib/armv7e-m/fpu/libc_nano.a(lib_a-nano-msizer.o)
OUTPUT(obj/MPU6050_raw.elf elf32-littlearm)

.debug_info     0x00000000     0x84f7
 .debug_info    0x00000000     0x318d /tmp/ccm9M6LD.ltrans0.ltrans.o
 .debug_info    0x0000318d     0x2263 /tmp/ccm9M6LD.ltrans1.ltrans.o
 .debug_info    0x000053f0      0xcc6 /tmp/ccm9M6LD.ltrans2.ltrans.o
 .debug_info    0x000060b6      0xe56 /tmp/ccm9M6LD.ltrans3.ltrans.o
 .debug_info    0x00006f0c     0x15eb /tmp/ccm9M6LD.ltrans4.ltrans.o

.debug_abbrev   0x00000000     0x1713
 .debug_abbrev  0x00000000      0x522 /tmp/ccm9M6LD.ltrans0.ltrans.o
 .debug_abbrev  0x00000522      0x5cc /tmp/ccm9M6LD.ltrans1.ltrans.o
 .debug_abbrev  0x00000aee      0x42d /tmp/ccm9M6LD.ltrans2.ltrans.o
 .debug_abbrev  0x00000f1b      0x348 /tmp/ccm9M6LD.ltrans3.ltrans.o
 .debug_abbrev  0x00001263      0x4b0 /tmp/ccm9M6LD.ltrans4.ltrans.o

.debug_loc      0x00000000     0x345c
 .debug_loc     0x00000000      0xcde /tmp/ccm9M6LD.ltrans0.ltrans.o
 .debug_loc     0x00000cde      0xb2c /tmp/ccm9M6LD.ltrans1.ltrans.o
 .debug_loc     0x0000180a      0x7a7 /tmp/ccm9M6LD.ltrans2.ltrans.o
 .debug_loc     0x00001fb1      0x847 /tmp/ccm9M6LD.ltrans3.ltrans.o
 .debug_loc     0x000027f8      0xc64 /tmp/ccm9M6LD.ltrans4.ltrans.o

.debug_aranges  0x00000000       0xa0
 .debug_aranges
                0x00000000       0x20 /tmp/ccm9M6LD.ltrans0.ltrans.o
 .debug_aranges
                0x00000020       0x20 /tmp/ccm9M6LD.ltrans1.ltrans.o
 .debug_aranges
                0x00000040       0x20 /tmp/ccm9M6LD.ltrans2.ltrans.o
 .debug_aranges
                0x00000060       0x20 /tmp/ccm9M6LD.ltrans3.ltrans.o
 .debug_aranges
                0x00000080       0x20 /tmp/ccm9M6LD.ltrans4.ltrans.o

.debug_ranges   0x00000000      0x820
 .debug_ranges  0x00000000      0x388 /tmp/ccm9M6LD.ltrans0.ltrans.o
 .debug_ranges  0x00000388      0x150 /tmp/ccm9M6LD.ltrans1.ltrans.o
 .debug_ranges  0x000004d8      0x230 /tmp/ccm9M6LD.ltrans2.ltrans.o
 .debug_ranges  0x00000708       0xb0 /tmp/ccm9M6LD.ltrans3.ltrans.o
 .debug_ranges  0x000007b8       0x68 /tmp/ccm9M6LD.ltrans4.ltrans.o

.debug_line     0x00000000     0x1e95
 .debug_line    0x00000000      0x947 /tmp/ccm9M6LD.ltrans0.ltrans.o
 .debug_line    0x00000947      0x6f6 /tmp/ccm9M6LD.ltrans1.ltrans.o
 .debug_line    0x0000103d      0x4b6 /tmp/ccm9M6LD.ltrans2.ltrans.o
 .debug_line    0x000014f3      0x49f /tmp/ccm9M6LD.ltrans3.ltrans.o
 .debug_line    0x00001992      0x503 /tmp/ccm9M6LD.ltrans4.ltrans.o

.debug_str      0x00000000     0x2e9c
 .debug_str     0x00000000     0x1808 /tmp/ccm9M6LD.ltrans0.ltrans.o
                               0x192a (size before relaxing)
 .debug_str     0x00001808      0xd31 /tmp/ccm9M6LD.ltrans1.ltrans.o
                               0x1699 (size before relaxing)
 .debug_str     0x00002539      0x356 /tmp/ccm9M6LD.ltrans2.ltrans.o
                                0x712 (size before relaxing)
 .debug_str     0x0000288f      0x46b /tmp/ccm9M6LD.ltrans3.ltrans.o
                                0x8c0 (size before relaxing)
 .debug_str     0x00002cfa      0x1a2 /tmp/ccm9M6LD.ltrans4.ltrans.o
                                0x832 (size before relaxing)

.comment        0x00000000       0x6e
 .comment       0x00000000       0x6e /tmp/ccm9M6LD.ltrans0.ltrans.o
                                 0x6f (size before relaxing)
 .comment       0x0000006e       0x6f /tmp/ccm9M6LD.ltrans1.ltrans.o
 .comment       0x0000006e       0x6f /tmp/ccm9M6LD.ltrans2.ltrans.o
 .comment       0x0000006e       0x6f /tmp/ccm9M6LD.ltrans3.ltrans.o
 .comment       0x0000006e       0x6f /tmp/ccm9M6LD.ltrans4.ltrans.o

.debug_frame    0x00000000      0xcf0
 .debug_frame   0x00000000       0x38 /tmp/ccm9M6LD.ltrans0.ltrans.o
 .debug_frame   0x00000038      0x434 /tmp/ccm9M6LD.ltrans1.ltrans.o
 .debug_frame   0x0000046c      0x128 /tmp/ccm9M6LD.ltrans2.ltrans.o
 .debug_frame   0x00000594      0x16c /tmp/ccm9M6LD.ltrans3.ltrans.o
 .debug_frame   0x00000700       0xa0 /tmp/ccm9M6LD.ltrans4.ltrans.o
 .debug_frame   0x000007a0       0x28 /usr/local/gcc-arm-none-eabi-5_4-2016q3/bin/../lib/gcc/arm-none-eabi/5.4.1/../../../../arm-none-eabi/lib/armv7e-m/fpu/libstdc++_nano.a(new_op.o)
 .debug_frame   0x000007c8       0x30 /usr/local/gcc-arm-none-eabi-5_4-2016q3/bin/../lib/gcc/arm-none-eabi/5.4.1/../../../../arm-none-eabi/lib/armv7e-m/fpu/libstdc++_nano.a(new_handler.o)
 .debug_frame   0x000007f8       0x28 /usr/local/gcc-arm-none-eabi-5_4-2016q3/bin/../lib/gcc/arm-none-eabi/5.4.1/../../../../arm-none-eabi/lib/armv7e-m/fpu/libc_nano.a(lib_a-abort.o)
 .debug_frame   0x00000820       0x30 /usr/local/gcc-arm-none-eabi-5_4-2016q3/bin/../lib/gcc/arm-none-eabi/5.4.1/../../../../arm-none-eabi/lib/armv7e-m/fpu/libc_nano.a(lib_a-malloc.o)
 .debug_frame   0x00000850       0x38 /usr/local/gcc-arm-none-eabi-5_4-2016q3/bin/../lib/gcc/arm-none-eabi/5.4.1/../../../../arm-none-eabi/lib/armv7e-m/fpu/libc_nano.a(lib_a-nano-freer.o)
 .debug_frame   0x00000888       0x2c /usr/local/gcc-arm-none-eabi-5_4-2016q3/bin/../lib/gcc/arm-none-eabi/5.4.1/../../../../arm-none-eabi/lib/armv7e-m/fpu/libc_nano.a(lib_a-nano-mallocr.o)
 .debug_frame   0x000008b4       0x2c /usr/local/gcc-arm-none-eabi-5_4-2016q3/bin/../lib/gcc/arm-none-eabi/5.4.1/../../../../arm-none-eabi/lib/armv7e-m/fpu/libc_nano.a(lib_a-sbrkr.o)
 .debug_frame   0x000008e0       0xcc /usr/local/gcc-arm-none-eabi-5_4-2016q3/bin/../lib/gcc/arm-none-eabi/5.4.1/../../../../arm-none-eabi/lib/armv7e-m/fpu/libc_nano.a(lib_a-signal.o)
 .debug_frame   0x000009ac       0x3c /usr/local/gcc-arm-none-eabi-5_4-2016q3/bin/../lib/gcc/arm-none-eabi/5.4.1/../../../../arm-none-eabi/lib/armv7e-m/fpu/libc_nano.a(lib_a-signalr.o)
 .debug_frame   0x000009e8       0x30 /usr/local/gcc-arm-none-eabi-5_4-2016q3/bin/../lib/gcc/arm-none-eabi/5.4.1/../../../../arm-none-eabi/lib/armv7e-m/fpu/libc_nano.a(lib_a-mlock.o)
 .debug_frame   0x00000a18       0x5c /usr/local/gcc-arm-none-eabi-5_4-2016q3/bin/../lib/gcc/arm-none-eabi/5.4.1/../../../../arm-none-eabi/lib/armv7e-m/fpu/libc_nano.a(lib_a-reent.o)
 .debug_frame   0x00000a74       0x20 /usr/local/gcc-arm-none-eabi-5_4-2016q3/bin/../lib/gcc/arm-none-eabi/5.4.1/../../../../arm-none-eabi/lib/armv7e-m/fpu/libnosys.a(getpid.o)
 .debug_frame   0x00000a94       0x20 /usr/local/gcc-arm-none-eabi-5_4-2016q3/bin/../lib/gcc/arm-none-eabi/5.4.1/../../../../arm-none-eabi/lib/armv7e-m/fpu/libnosys.a(kill.o)
 .debug_frame   0x00000ab4       0x20 /usr/local/gcc-arm-none-eabi-5_4-2016q3/bin/../lib/gcc/arm-none-eabi/5.4.1/../../../../arm-none-eabi/lib/armv7e-m/fpu/libnosys.a(sbrk.o)
 .debug_frame   0x00000ad4       0x20 /usr/local/gcc-arm-none-eabi-5_4-2016q3/bin/../lib/gcc/arm-none-eabi/5.4.1/../../../../arm-none-eabi/lib/armv7e-m/fpu/libnosys.a(_exit.o)
 .debug_frame   0x00000af4       0x20 /usr/local/gcc-arm-none-eabi-5_4-2016q3/bin/../lib/gcc/arm-none-eabi/5.4.1/../../../../arm-none-eabi/lib/armv7e-m/fpu/libc_nano.a(lib_a-memset.o)
 .debug_frame   0x00000b14       0x40 /usr/local/gcc-arm-none-eabi-5_4-2016q3/bin/../lib/gcc/arm-none-eabi/5.4.1/../../../../arm-none-eabi/lib/armv7e-m/fpu/libc_nano.a(lib_a-vsprintf.o)
 .debug_frame   0x00000b54       0x90 /usr/local/gcc-arm-none-eabi-5_4-2016q3/bin/../lib/gcc/arm-none-eabi/5.4.1/../../../../arm-none-eabi/lib/armv7e-m/fpu/libc_nano.a(lib_a-nano-svfprintf.o)
 .debug_frame   0x00000be4       0x60 /usr/local/gcc-arm-none-eabi-5_4-2016q3/bin/../lib/gcc/arm-none-eabi/5.4.1/../../../../arm-none-eabi/lib/armv7e-m/fpu/libc_nano.a(lib_a-nano-vfprintf_i.o)
 .debug_frame   0x00000c44       0x28 /usr/local/gcc-arm-none-eabi-5_4-2016q3/bin/../lib/gcc/arm-none-eabi/5.4.1/../../../../arm-none-eabi/lib/armv7e-m/fpu/libc_nano.a(lib_a-memcpy-stub.o)
 .debug_frame   0x00000c6c       0x28 /usr/local/gcc-arm-none-eabi-5_4-2016q3/bin/../lib/gcc/arm-none-eabi/5.4.1/../../../../arm-none-eabi/lib/armv7e-m/fpu/libc_nano.a(lib_a-memmove.o)
 .debug_frame   0x00000c94       0x3c /usr/local/gcc-arm-none-eabi-5_4-2016q3/bin/../lib/gcc/arm-none-eabi/5.4.1/../../../../arm-none-eabi/lib/armv7e-m/fpu/libc_nano.a(lib_a-nano-reallocr.o)
 .debug_frame   0x00000cd0       0x20 /usr/local/gcc-arm-none-eabi-5_4-2016q3/bin/../lib/gcc/arm-none-eabi/5.4.1/../../../../arm-none-eabi/lib/armv7e-m/fpu/libc_nano.a(lib_a-nano-msizer.o)

.stab           0x00000000       0x3c
 .stab          0x00000000       0x24 /usr/local/gcc-arm-none-eabi-5_4-2016q3/bin/../lib/gcc/arm-none-eabi/5.4.1/../../../../arm-none-eabi/lib/armv7e-m/fpu/libnosys.a(getpid.o)
 .stab          0x00000024       0x18 /usr/local/gcc-arm-none-eabi-5_4-2016q3/bin/../lib/gcc/arm-none-eabi/5.4.1/../../../../arm-none-eabi/lib/armv7e-m/fpu/libnosys.a(kill.o)
                                 0x24 (size before relaxing)

.stabstr        0x00000000       0x76
 .stabstr       0x00000000       0x76 /usr/local/gcc-arm-none-eabi-5_4-2016q3/bin/../lib/gcc/arm-none-eabi/5.4.1/../../../../arm-none-eabi/lib/armv7e-m/fpu/libnosys.a(getpid.o)

Cross Reference Table

Symbol                                            File
ADC1_2_IRQHandler                                 obj/MPU6050_raw/startup_stm32f30x_md_gcc.o
ADC3_IRQHandler                                   obj/MPU6050_raw/startup_stm32f30x_md_gcc.o
ADC4_IRQHandler                                   obj/MPU6050_raw/startup_stm32f30x_md_gcc.o
ADC_AnalogWatchdog1SingleChannelConfig            obj/MPU6050_raw/stm32f30x_adc.o (symbol from plugin)
ADC_AnalogWatchdog1ThresholdsConfig               obj/MPU6050_raw/stm32f30x_adc.o (symbol from plugin)
ADC_AnalogWatchdog2SingleChannelConfig            obj/MPU6050_raw/stm32f30x_adc.o (symbol from plugin)
ADC_AnalogWatchdog2ThresholdsConfig               obj/MPU6050_raw/stm32f30x_adc.o (symbol from plugin)
ADC_AnalogWatchdog3SingleChannelConfig            obj/MPU6050_raw/stm32f30x_adc.o (symbol from plugin)
ADC_AnalogWatchdog3ThresholdsConfig               obj/MPU6050_raw/stm32f30x_adc.o (symbol from plugin)
ADC_AnalogWatchdogCmd                             obj/MPU6050_raw/stm32f30x_adc.o (symbol from plugin)
ADC_AutoDelayCmd                                  obj/MPU6050_raw/stm32f30x_adc.o (symbol from plugin)
ADC_AutoInjectedConvCmd                           obj/MPU6050_raw/stm32f30x_adc.o (symbol from plugin)
ADC_ChannelOffset1Cmd                             obj/MPU6050_raw/stm32f30x_adc.o (symbol from plugin)
ADC_ChannelOffset2Cmd                             obj/MPU6050_raw/stm32f30x_adc.o (symbol from plugin)
ADC_ChannelOffset3Cmd                             obj/MPU6050_raw/stm32f30x_adc.o (symbol from plugin)
ADC_ChannelOffset4Cmd                             obj/MPU6050_raw/stm32f30x_adc.o (symbol from plugin)
ADC_ClearCommonFlag                               obj/MPU6050_raw/stm32f30x_adc.o (symbol from plugin)
ADC_ClearFlag                                     obj/MPU6050_raw/stm32f30x_adc.o (symbol from plugin)
ADC_ClearITPendingBit                             obj/MPU6050_raw/stm32f30x_adc.o (symbol from plugin)
ADC_Cmd                                           obj/MPU6050_raw/stm32f30x_adc.o (symbol from plugin)
ADC_CommonInit                                    obj/MPU6050_raw/stm32f30x_adc.o (symbol from plugin)
ADC_CommonStructInit                              obj/MPU6050_raw/stm32f30x_adc.o (symbol from plugin)
ADC_DMACmd                                        obj/MPU6050_raw/stm32f30x_adc.o (symbol from plugin)
ADC_DMAConfig                                     obj/MPU6050_raw/stm32f30x_adc.o (symbol from plugin)
ADC_DeInit                                        obj/MPU6050_raw/stm32f30x_adc.o (symbol from plugin)
ADC_DisableCmd                                    obj/MPU6050_raw/stm32f30x_adc.o (symbol from plugin)
ADC_DiscModeChannelCountConfig                    obj/MPU6050_raw/stm32f30x_adc.o (symbol from plugin)
ADC_DiscModeCmd                                   obj/MPU6050_raw/stm32f30x_adc.o (symbol from plugin)
ADC_ExternalTriggerConfig                         obj/MPU6050_raw/stm32f30x_adc.o (symbol from plugin)
ADC_GetCalibrationStatus                          obj/MPU6050_raw/stm32f30x_adc.o (symbol from plugin)
ADC_GetCalibrationValue                           obj/MPU6050_raw/stm32f30x_adc.o (symbol from plugin)
ADC_GetCommonFlagStatus                           obj/MPU6050_raw/stm32f30x_adc.o (symbol from plugin)
ADC_GetConversionValue                            obj/MPU6050_raw/stm32f30x_adc.o (symbol from plugin)
ADC_GetDisableCmdStatus                           obj/MPU6050_raw/stm32f30x_adc.o (symbol from plugin)
ADC_GetDualModeConversionValue                    obj/MPU6050_raw/stm32f30x_adc.o (symbol from plugin)
ADC_GetFlagStatus                                 obj/MPU6050_raw/stm32f30x_adc.o (symbol from plugin)
ADC_GetITStatus                                   obj/MPU6050_raw/stm32f30x_adc.o (symbol from plugin)
ADC_GetInjectedConversionValue                    obj/MPU6050_raw/stm32f30x_adc.o (symbol from plugin)
ADC_GetStartConversionStatus                      obj/MPU6050_raw/stm32f30x_adc.o (symbol from plugin)
ADC_GetStartInjectedConversionStatus              obj/MPU6050_raw/stm32f30x_adc.o (symbol from plugin)
ADC_ITConfig                                      obj/MPU6050_raw/stm32f30x_adc.o (symbol from plugin)
ADC_Init                                          obj/MPU6050_raw/stm32f30x_adc.o (symbol from plugin)
ADC_InjectedChannelSampleTimeConfig               obj/MPU6050_raw/stm32f30x_adc.o (symbol from plugin)
ADC_InjectedDiscModeCmd                           obj/MPU6050_raw/stm32f30x_adc.o (symbol from plugin)
ADC_InjectedInit                                  obj/MPU6050_raw/stm32f30x_adc.o (symbol from plugin)
ADC_InjectedStructInit                            obj/MPU6050_raw/stm32f30x_adc.o (symbol from plugin)
ADC_RegularChannelConfig                          obj/MPU6050_raw/stm32f30x_adc.o (symbol from plugin)
ADC_RegularChannelSequencerLengthConfig           obj/MPU6050_raw/stm32f30x_adc.o (symbol from plugin)
ADC_SelectCalibrationMode                         obj/MPU6050_raw/stm32f30x_adc.o (symbol from plugin)
ADC_SelectDifferentialMode                        obj/MPU6050_raw/stm32f30x_adc.o (symbol from plugin)
ADC_SelectQueueOfContextMode                      obj/MPU6050_raw/stm32f30x_adc.o (symbol from plugin)
ADC_SetCalibrationValue                           obj/MPU6050_raw/stm32f30x_adc.o (symbol from plugin)
ADC_SetChannelOffset1                             obj/MPU6050_raw/stm32f30x_adc.o (symbol from plugin)
ADC_SetChannelOffset2                             obj/MPU6050_raw/stm32f30x_adc.o (symbol from plugin)
ADC_SetChannelOffset3                             obj/MPU6050_raw/stm32f30x_adc.o (symbol from plugin)
ADC_SetChannelOffset4                             obj/MPU6050_raw/stm32f30x_adc.o (symbol from plugin)
ADC_StartCalibration                              obj/MPU6050_raw/stm32f30x_adc.o (symbol from plugin)
ADC_StartConversion                               obj/MPU6050_raw/stm32f30x_adc.o (symbol from plugin)
ADC_StartInjectedConversion                       obj/MPU6050_raw/stm32f30x_adc.o (symbol from plugin)
ADC_StopConversion                                obj/MPU6050_raw/stm32f30x_adc.o (symbol from plugin)
ADC_StopInjectedConversion                        obj/MPU6050_raw/stm32f30x_adc.o (symbol from plugin)
ADC_StructInit                                    obj/MPU6050_raw/stm32f30x_adc.o (symbol from plugin)
ADC_TempSensorCmd                                 obj/MPU6050_raw/stm32f30x_adc.o (symbol from plugin)
ADC_VbatCmd                                       obj/MPU6050_raw/stm32f30x_adc.o (symbol from plugin)
ADC_VoltageRegulatorCmd                           obj/MPU6050_raw/stm32f30x_adc.o (symbol from plugin)
ADC_VrefintCmd                                    obj/MPU6050_raw/stm32f30x_adc.o (symbol from plugin)
AHBPrescTable                                     obj/MPU6050_raw/target/system_stm32f30x.o (symbol from plugin)
BusFault_Handler                                  /tmp/ccm9M6LD.ltrans2.ltrans.o
                                                  obj/MPU6050_raw/vcp/stm32_it.o (symbol from plugin)
                                                  obj/MPU6050_raw/startup_stm32f30x_md_gcc.o
ByteSwap                                          obj/MPU6050_raw/usb_regs.o (symbol from plugin)
                                                  obj/MPU6050_raw/usb_core.o (symbol from plugin)
CAN1_RX1_IRQHandler                               obj/MPU6050_raw/startup_stm32f30x_md_gcc.o
CAN1_SCE_IRQHandler                               obj/MPU6050_raw/startup_stm32f30x_md_gcc.o
CDC_BaudRate                                      obj/MPU6050_raw/vcp/hw_config.o (symbol from plugin)
                                                  obj/MPU6050_raw/serial_usb_vcp.o (symbol from plugin)
CDC_Receive_DATA                                  obj/MPU6050_raw/vcp/hw_config.o (symbol from plugin)
                                                  obj/MPU6050_raw/serial_usb_vcp.o (symbol from plugin)
CDC_Send_DATA                                     obj/MPU6050_raw/vcp/hw_config.o (symbol from plugin)
                                                  obj/MPU6050_raw/serial_usb_vcp.o (symbol from plugin)
CDC_Send_DATA.part.0                              /tmp/ccm9M6LD.ltrans2.ltrans.o
                                                  /tmp/ccm9M6LD.ltrans1.ltrans.o
COMP1_2_3_IRQHandler                              obj/MPU6050_raw/startup_stm32f30x_md_gcc.o
COMP4_5_6_IRQHandler                              obj/MPU6050_raw/startup_stm32f30x_md_gcc.o
COMP7_IRQHandler                                  obj/MPU6050_raw/startup_stm32f30x_md_gcc.o
COMP_Cmd                                          obj/MPU6050_raw/stm32f30x_comp.o (symbol from plugin)
COMP_DeInit                                       obj/MPU6050_raw/stm32f30x_comp.o (symbol from plugin)
COMP_GetOutputLevel                               obj/MPU6050_raw/stm32f30x_comp.o (symbol from plugin)
COMP_Init                                         obj/MPU6050_raw/stm32f30x_comp.o (symbol from plugin)
COMP_LockConfig                                   obj/MPU6050_raw/stm32f30x_comp.o (symbol from plugin)
COMP_StructInit                                   obj/MPU6050_raw/stm32f30x_comp.o (symbol from plugin)
COMP_SwitchCmd                                    obj/MPU6050_raw/stm32f30x_comp.o (symbol from plugin)
COMP_WindowCmd                                    obj/MPU6050_raw/stm32f30x_comp.o (symbol from plugin)
CTR_HP                                            obj/MPU6050_raw/usb_int.o (symbol from plugin)
CTR_LP                                            obj/MPU6050_raw/usb_int.o (symbol from plugin)
                                                  obj/MPU6050_raw/vcp/usb_istr.o (symbol from plugin)
ClearDTOG_RX                                      obj/MPU6050_raw/usb_regs.o (symbol from plugin)
                                                  obj/MPU6050_raw/usb_core.o (symbol from plugin)
ClearDTOG_TX                                      obj/MPU6050_raw/usb_regs.o (symbol from plugin)
                                                  obj/MPU6050_raw/usb_core.o (symbol from plugin)
ClearEPDoubleBuff                                 obj/MPU6050_raw/usb_regs.o (symbol from plugin)
ClearEP_CTR_RX                                    obj/MPU6050_raw/usb_regs.o (symbol from plugin)
ClearEP_CTR_TX                                    obj/MPU6050_raw/usb_regs.o (symbol from plugin)
ClearEP_KIND                                      obj/MPU6050_raw/usb_regs.o (symbol from plugin)
Clear_Status_Out                                  obj/MPU6050_raw/usb_regs.o (symbol from plugin)
                                                  obj/MPU6050_raw/vcp/usb_prop.o (symbol from plugin)
Config_Descriptor                                 obj/MPU6050_raw/vcp/usb_prop.o (symbol from plugin)
DAC_ClearFlag                                     obj/MPU6050_raw/stm32f30x_dac.o (symbol from plugin)
DAC_ClearITPendingBit                             obj/MPU6050_raw/stm32f30x_dac.o (symbol from plugin)
DAC_Cmd                                           obj/MPU6050_raw/stm32f30x_dac.o (symbol from plugin)
DAC_DMACmd                                        obj/MPU6050_raw/stm32f30x_dac.o (symbol from plugin)
DAC_DeInit                                        obj/MPU6050_raw/stm32f30x_dac.o (symbol from plugin)
DAC_DualSoftwareTriggerCmd                        obj/MPU6050_raw/stm32f30x_dac.o (symbol from plugin)
DAC_GetDataOutputValue                            obj/MPU6050_raw/stm32f30x_dac.o (symbol from plugin)
DAC_GetFlagStatus                                 obj/MPU6050_raw/stm32f30x_dac.o (symbol from plugin)
DAC_GetITStatus                                   obj/MPU6050_raw/stm32f30x_dac.o (symbol from plugin)
DAC_ITConfig                                      obj/MPU6050_raw/stm32f30x_dac.o (symbol from plugin)
DAC_Init                                          obj/MPU6050_raw/stm32f30x_dac.o (symbol from plugin)
DAC_SetChannel1Data                               obj/MPU6050_raw/stm32f30x_dac.o (symbol from plugin)
DAC_SetChannel2Data                               obj/MPU6050_raw/stm32f30x_dac.o (symbol from plugin)
DAC_SetDualChannelData                            obj/MPU6050_raw/stm32f30x_dac.o (symbol from plugin)
DAC_SoftwareTriggerCmd                            obj/MPU6050_raw/stm32f30x_dac.o (symbol from plugin)
DAC_StructInit                                    obj/MPU6050_raw/stm32f30x_dac.o (symbol from plugin)
DAC_WaveGenerationCmd                             obj/MPU6050_raw/stm32f30x_dac.o (symbol from plugin)
DBGMCU_APB1PeriphConfig                           obj/MPU6050_raw/stm32f30x_dbgmcu.o (symbol from plugin)
DBGMCU_APB2PeriphConfig                           obj/MPU6050_raw/stm32f30x_dbgmcu.o (symbol from plugin)
DBGMCU_Config                                     obj/MPU6050_raw/stm32f30x_dbgmcu.o (symbol from plugin)
DBGMCU_GetDEVID                                   obj/MPU6050_raw/stm32f30x_dbgmcu.o (symbol from plugin)
DBGMCU_GetREVID                                   obj/MPU6050_raw/stm32f30x_dbgmcu.o (symbol from plugin)
DMA1_Channel1_IRQHandler                          /tmp/ccm9M6LD.ltrans1.ltrans.o
                                                  obj/MPU6050_raw/dma.o (symbol from plugin)
                                                  obj/MPU6050_raw/startup_stm32f30x_md_gcc.o
DMA1_Channel2_IRQHandler                          /tmp/ccm9M6LD.ltrans1.ltrans.o
                                                  obj/MPU6050_raw/dma.o (symbol from plugin)
                                                  obj/MPU6050_raw/startup_stm32f30x_md_gcc.o
DMA1_Channel3_IRQHandler                          /tmp/ccm9M6LD.ltrans1.ltrans.o
                                                  obj/MPU6050_raw/dma.o (symbol from plugin)
                                                  obj/MPU6050_raw/startup_stm32f30x_md_gcc.o
DMA1_Channel4_IRQHandler                          /tmp/ccm9M6LD.ltrans1.ltrans.o
                                                  obj/MPU6050_raw/dma.o (symbol from plugin)
                                                  obj/MPU6050_raw/startup_stm32f30x_md_gcc.o
DMA1_Channel5_IRQHandler                          /tmp/ccm9M6LD.ltrans1.ltrans.o
                                                  obj/MPU6050_raw/dma.o (symbol from plugin)
                                                  obj/MPU6050_raw/startup_stm32f30x_md_gcc.o
DMA1_Channel6_IRQHandler                          /tmp/ccm9M6LD.ltrans1.ltrans.o
                                                  obj/MPU6050_raw/dma.o (symbol from plugin)
                                                  obj/MPU6050_raw/startup_stm32f30x_md_gcc.o
DMA1_Channel7_IRQHandler                          /tmp/ccm9M6LD.ltrans1.ltrans.o
                                                  obj/MPU6050_raw/dma.o (symbol from plugin)
                                                  obj/MPU6050_raw/startup_stm32f30x_md_gcc.o
DMA2_Channel1_IRQHandler                          /tmp/ccm9M6LD.ltrans1.ltrans.o
                                                  obj/MPU6050_raw/dma.o (symbol from plugin)
                                                  obj/MPU6050_raw/startup_stm32f30x_md_gcc.o
DMA2_Channel2_IRQHandler                          /tmp/ccm9M6LD.ltrans1.ltrans.o
                                                  obj/MPU6050_raw/dma.o (symbol from plugin)
                                                  obj/MPU6050_raw/startup_stm32f30x_md_gcc.o
DMA2_Channel3_IRQHandler                          /tmp/ccm9M6LD.ltrans1.ltrans.o
                                                  obj/MPU6050_raw/dma.o (symbol from plugin)
                                                  obj/MPU6050_raw/startup_stm32f30x_md_gcc.o
DMA2_Channel4_IRQHandler                          /tmp/ccm9M6LD.ltrans1.ltrans.o
                                                  obj/MPU6050_raw/dma.o (symbol from plugin)
                                                  obj/MPU6050_raw/startup_stm32f30x_md_gcc.o
DMA2_Channel5_IRQHandler                          /tmp/ccm9M6LD.ltrans1.ltrans.o
                                                  obj/MPU6050_raw/dma.o (symbol from plugin)
                                                  obj/MPU6050_raw/startup_stm32f30x_md_gcc.o
DMA_ClearFlag                                     obj/MPU6050_raw/stm32f30x_dma.o (symbol from plugin)
DMA_ClearITPendingBit                             obj/MPU6050_raw/stm32f30x_dma.o (symbol from plugin)
DMA_Cmd                                           obj/MPU6050_raw/stm32f30x_dma.o (symbol from plugin)
                                                  obj/MPU6050_raw/serial_uart_stm32f30x.o (symbol from plugin)
                                                  obj/MPU6050_raw/serial_uart.o (symbol from plugin)
DMA_DeInit                                        obj/MPU6050_raw/stm32f30x_dma.o (symbol from plugin)
                                                  obj/MPU6050_raw/serial_uart.o (symbol from plugin)
DMA_GetCurrDataCounter                            obj/MPU6050_raw/stm32f30x_dma.o (symbol from plugin)
                                                  obj/MPU6050_raw/serial_uart.o (symbol from plugin)
DMA_GetFlagStatus                                 obj/MPU6050_raw/stm32f30x_dma.o (symbol from plugin)
DMA_GetITStatus                                   obj/MPU6050_raw/stm32f30x_dma.o (symbol from plugin)
DMA_IRQHandler                                    obj/MPU6050_raw/dma.o (symbol from plugin)
DMA_ITConfig                                      obj/MPU6050_raw/stm32f30x_dma.o (symbol from plugin)
                                                  obj/MPU6050_raw/serial_uart.o (symbol from plugin)
DMA_Init                                          obj/MPU6050_raw/stm32f30x_dma.o (symbol from plugin)
                                                  obj/MPU6050_raw/serial_uart.o (symbol from plugin)
DMA_SetCurrDataCounter                            obj/MPU6050_raw/stm32f30x_dma.o (symbol from plugin)
                                                  obj/MPU6050_raw/serial_uart.o (symbol from plugin)
DMA_StructInit                                    obj/MPU6050_raw/stm32f30x_dma.o (symbol from plugin)
                                                  obj/MPU6050_raw/serial_uart.o (symbol from plugin)
DataStageIn.lto_priv.54                           /tmp/ccm9M6LD.ltrans1.ltrans.o
                                                  /tmp/ccm9M6LD.ltrans2.ltrans.o
Data_Mul_MaxPacketSize                            /tmp/ccm9M6LD.ltrans2.ltrans.o
                                                  obj/MPU6050_raw/usb_core.o (symbol from plugin)
                                                  /tmp/ccm9M6LD.ltrans1.ltrans.o
DebugMon_Handler                                  /tmp/ccm9M6LD.ltrans2.ltrans.o
                                                  obj/MPU6050_raw/vcp/stm32_it.o (symbol from plugin)
                                                  obj/MPU6050_raw/startup_stm32f30x_md_gcc.o
Default_Handler                                   obj/MPU6050_raw/startup_stm32f30x_md_gcc.o
Device_Descriptor                                 obj/MPU6050_raw/vcp/usb_prop.o (symbol from plugin)
Device_Info                                       /tmp/ccm9M6LD.ltrans0.ltrans.o
                                                  obj/MPU6050_raw/usb_init.o (symbol from plugin)
                                                  /tmp/ccm9M6LD.ltrans3.ltrans.o
                                                  obj/MPU6050_raw/vcp/usb_prop.o (symbol from plugin)
                                                  obj/MPU6050_raw/vcp/hw_config.o (symbol from plugin)
Device_Property                                   /tmp/ccm9M6LD.ltrans0.ltrans.o
                                                  obj/MPU6050_raw/vcp/usb_prop.o (symbol from plugin)
                                                  /tmp/ccm9M6LD.ltrans3.ltrans.o
                                                  /tmp/ccm9M6LD.ltrans2.ltrans.o
                                                  /tmp/ccm9M6LD.ltrans1.ltrans.o
                                                  obj/MPU6050_raw/vcp/usb_istr.o (symbol from plugin)
                                                  obj/MPU6050_raw/usb_init.o (symbol from plugin)
                                                  obj/MPU6050_raw/usb_core.o (symbol from plugin)
Device_Table                                      /tmp/ccm9M6LD.ltrans2.ltrans.o
                                                  obj/MPU6050_raw/vcp/usb_prop.o (symbol from plugin)
                                                  obj/MPU6050_raw/usb_core.o (symbol from plugin)
EP                                                obj/MPU6050_raw/vcp/usb_pwr.o (symbol from plugin)
EP1_IN_Callback                                   /tmp/ccm9M6LD.ltrans3.ltrans.o
                                                  obj/MPU6050_raw/vcp/usb_endp.o (symbol from plugin)
                                                  /tmp/ccm9M6LD.ltrans2.ltrans.o
                                                  obj/MPU6050_raw/vcp/usb_istr.o (symbol from plugin)
EP3_OUT_Callback                                  /tmp/ccm9M6LD.ltrans3.ltrans.o
                                                  obj/MPU6050_raw/vcp/usb_endp.o (symbol from plugin)
                                                  /tmp/ccm9M6LD.ltrans2.ltrans.o
                                                  obj/MPU6050_raw/vcp/usb_istr.o (symbol from plugin)
EPindex                                           obj/MPU6050_raw/usb_init.o (symbol from plugin)
                                                  obj/MPU6050_raw/usb_int.o (symbol from plugin)
EXTI0_IRQHandler                                  /tmp/ccm9M6LD.ltrans1.ltrans.o
                                                  obj/MPU6050_raw/exti.o (symbol from plugin)
                                                  obj/MPU6050_raw/startup_stm32f30x_md_gcc.o
EXTI15_10_IRQHandler                              /tmp/ccm9M6LD.ltrans1.ltrans.o
                                                  obj/MPU6050_raw/exti.o (symbol from plugin)
                                                  obj/MPU6050_raw/startup_stm32f30x_md_gcc.o
EXTI1_IRQHandler                                  /tmp/ccm9M6LD.ltrans1.ltrans.o
                                                  obj/MPU6050_raw/exti.o (symbol from plugin)
                                                  obj/MPU6050_raw/startup_stm32f30x_md_gcc.o
EXTI2_TS_IRQHandler                               /tmp/ccm9M6LD.ltrans1.ltrans.o
                                                  obj/MPU6050_raw/exti.o (symbol from plugin)
                                                  obj/MPU6050_raw/startup_stm32f30x_md_gcc.o
EXTI3_IRQHandler                                  /tmp/ccm9M6LD.ltrans1.ltrans.o
                                                  obj/MPU6050_raw/exti.o (symbol from plugin)
                                                  obj/MPU6050_raw/startup_stm32f30x_md_gcc.o
EXTI4_IRQHandler                                  /tmp/ccm9M6LD.ltrans1.ltrans.o
                                                  obj/MPU6050_raw/exti.o (symbol from plugin)
                                                  obj/MPU6050_raw/startup_stm32f30x_md_gcc.o
EXTI9_5_IRQHandler                                /tmp/ccm9M6LD.ltrans1.ltrans.o
                                                  obj/MPU6050_raw/exti.o (symbol from plugin)
                                                  obj/MPU6050_raw/startup_stm32f30x_md_gcc.o
EXTIConfig                                        obj/MPU6050_raw/exti.o (symbol from plugin)
EXTIEnable                                        obj/MPU6050_raw/exti.o (symbol from plugin)
EXTIHandlerInit                                   obj/MPU6050_raw/exti.o (symbol from plugin)
EXTIInit                                          obj/MPU6050_raw/exti.o (symbol from plugin)
EXTIRelease                                       obj/MPU6050_raw/exti.o (symbol from plugin)
EXTI_ClearFlag                                    obj/MPU6050_raw/stm32f30x_exti.o (symbol from plugin)
EXTI_ClearITPendingBit                            obj/MPU6050_raw/stm32f30x_exti.o (symbol from plugin)
                                                  obj/MPU6050_raw/vcp/stm32_it.o (symbol from plugin)
                                                  obj/MPU6050_raw/vcp/hw_config.o (symbol from plugin)
                                                  obj/MPU6050_raw/exti.o (symbol from plugin)
EXTI_DeInit                                       obj/MPU6050_raw/stm32f30x_exti.o (symbol from plugin)
EXTI_GenerateSWInterrupt                          obj/MPU6050_raw/stm32f30x_exti.o (symbol from plugin)
EXTI_GetFlagStatus                                obj/MPU6050_raw/stm32f30x_exti.o (symbol from plugin)
EXTI_GetITStatus                                  obj/MPU6050_raw/stm32f30x_exti.o (symbol from plugin)
EXTI_IRQHandler                                   obj/MPU6050_raw/exti.o (symbol from plugin)
EXTI_Init                                         obj/MPU6050_raw/stm32f30x_exti.o (symbol from plugin)
                                                  obj/MPU6050_raw/vcp/hw_config.o (symbol from plugin)
                                                  obj/MPU6050_raw/exti.o (symbol from plugin)
EXTI_InitStructure                                obj/MPU6050_raw/vcp/hw_config.o (symbol from plugin)
EXTI_StructInit                                   obj/MPU6050_raw/stm32f30x_exti.o (symbol from plugin)
Enter_LowPowerMode                                obj/MPU6050_raw/vcp/hw_config.o (symbol from plugin)
FLASH_ClearFlag                                   obj/MPU6050_raw/stm32f30x_flash.o (symbol from plugin)
FLASH_EraseAllPages                               obj/MPU6050_raw/stm32f30x_flash.o (symbol from plugin)
FLASH_ErasePage                                   obj/MPU6050_raw/stm32f30x_flash.o (symbol from plugin)
FLASH_GetFlagStatus                               obj/MPU6050_raw/stm32f30x_flash.o (symbol from plugin)
FLASH_GetStatus                                   obj/MPU6050_raw/stm32f30x_flash.o (symbol from plugin)
FLASH_HalfCycleAccessCmd                          obj/MPU6050_raw/stm32f30x_flash.o (symbol from plugin)
FLASH_IRQHandler                                  obj/MPU6050_raw/startup_stm32f30x_md_gcc.o
FLASH_ITConfig                                    obj/MPU6050_raw/stm32f30x_flash.o (symbol from plugin)
FLASH_Lock                                        obj/MPU6050_raw/stm32f30x_flash.o (symbol from plugin)
FLASH_OB_BOOTConfig                               obj/MPU6050_raw/stm32f30x_flash.o (symbol from plugin)
FLASH_OB_EnableWRP                                obj/MPU6050_raw/stm32f30x_flash.o (symbol from plugin)
FLASH_OB_Erase                                    obj/MPU6050_raw/stm32f30x_flash.o (symbol from plugin)
FLASH_OB_GetRDP                                   obj/MPU6050_raw/stm32f30x_flash.o (symbol from plugin)
FLASH_OB_GetUser                                  obj/MPU6050_raw/stm32f30x_flash.o (symbol from plugin)
FLASH_OB_GetWRP                                   obj/MPU6050_raw/stm32f30x_flash.o (symbol from plugin)
FLASH_OB_Launch                                   obj/MPU6050_raw/stm32f30x_flash.o (symbol from plugin)
FLASH_OB_Lock                                     obj/MPU6050_raw/stm32f30x_flash.o (symbol from plugin)
FLASH_OB_RDPConfig                                obj/MPU6050_raw/stm32f30x_flash.o (symbol from plugin)
FLASH_OB_SRAMParityConfig                         obj/MPU6050_raw/stm32f30x_flash.o (symbol from plugin)
FLASH_OB_Unlock                                   obj/MPU6050_raw/stm32f30x_flash.o (symbol from plugin)
FLASH_OB_UserConfig                               obj/MPU6050_raw/stm32f30x_flash.o (symbol from plugin)
FLASH_OB_VDDAConfig                               obj/MPU6050_raw/stm32f30x_flash.o (symbol from plugin)
FLASH_OB_WriteUser                                obj/MPU6050_raw/stm32f30x_flash.o (symbol from plugin)
FLASH_PrefetchBufferCmd                           obj/MPU6050_raw/stm32f30x_flash.o (symbol from plugin)
FLASH_ProgramHalfWord                             obj/MPU6050_raw/stm32f30x_flash.o (symbol from plugin)
FLASH_ProgramOptionByteData                       obj/MPU6050_raw/stm32f30x_flash.o (symbol from plugin)
FLASH_ProgramWord                                 obj/MPU6050_raw/stm32f30x_flash.o (symbol from plugin)
FLASH_SetLatency                                  obj/MPU6050_raw/stm32f30x_flash.o (symbol from plugin)
FLASH_Unlock                                      obj/MPU6050_raw/stm32f30x_flash.o (symbol from plugin)
FLASH_WaitForLastOperation                        obj/MPU6050_raw/stm32f30x_flash.o (symbol from plugin)
FPU_IRQHandler                                    obj/MPU6050_raw/startup_stm32f30x_md_gcc.o
FreeUserBuffer                                    obj/MPU6050_raw/usb_regs.o (symbol from plugin)
GPIO_DeInit                                       obj/MPU6050_raw/stm32f30x_gpio.o (symbol from plugin)
GPIO_Init                                         /tmp/ccm9M6LD.ltrans1.ltrans.o
                                                  obj/MPU6050_raw/stm32f30x_gpio.o (symbol from plugin)
                                                  /tmp/ccm9M6LD.ltrans0.ltrans.o
                                                  obj/MPU6050_raw/HardwareWire.o (symbol from plugin)
                                                  obj/MPU6050_raw/usb_io.o (symbol from plugin)
                                                  obj/MPU6050_raw/vcp/hw_config.o (symbol from plugin)
                                                  obj/MPU6050_raw/io.o (symbol from plugin)
                                                  obj/MPU6050_raw/serial_uart_stm32f30x.o (symbol from plugin)
                                                  obj/MPU6050_raw/gpio_stm32f30x.o (symbol from plugin)
GPIO_PinAFConfig                                  obj/MPU6050_raw/stm32f30x_gpio.o (symbol from plugin)
                                                  obj/MPU6050_raw/HardwareWire.o (symbol from plugin)
                                                  obj/MPU6050_raw/vcp/hw_config.o (symbol from plugin)
                                                  obj/MPU6050_raw/io.o (symbol from plugin)
                                                  obj/MPU6050_raw/serial_uart_stm32f30x.o (symbol from plugin)
                                                  obj/MPU6050_raw/timer.o (symbol from plugin)
GPIO_PinLockConfig                                obj/MPU6050_raw/stm32f30x_gpio.o (symbol from plugin)
GPIO_ReadInputData                                obj/MPU6050_raw/stm32f30x_gpio.o (symbol from plugin)
GPIO_ReadInputDataBit                             obj/MPU6050_raw/stm32f30x_gpio.o (symbol from plugin)
GPIO_ReadOutputData                               obj/MPU6050_raw/stm32f30x_gpio.o (symbol from plugin)
GPIO_ReadOutputDataBit                            obj/MPU6050_raw/stm32f30x_gpio.o (symbol from plugin)
GPIO_ResetBits                                    obj/MPU6050_raw/stm32f30x_gpio.o (symbol from plugin)
                                                  obj/MPU6050_raw/usb_io.o (symbol from plugin)
GPIO_SetBits                                      obj/MPU6050_raw/stm32f30x_gpio.o (symbol from plugin)
                                                  obj/MPU6050_raw/usb_io.o (symbol from plugin)
                                                  obj/MPU6050_raw/serial_uart_stm32f30x.o (symbol from plugin)
GPIO_StructInit                                   obj/MPU6050_raw/stm32f30x_gpio.o (symbol from plugin)
                                                  obj/MPU6050_raw/HardwareWire.o (symbol from plugin)
GPIO_Write                                        obj/MPU6050_raw/stm32f30x_gpio.o (symbol from plugin)
GPIO_WriteBit                                     obj/MPU6050_raw/stm32f30x_gpio.o (symbol from plugin)
GetBTABLE                                         obj/MPU6050_raw/usb_regs.o (symbol from plugin)
GetCNTR                                           obj/MPU6050_raw/usb_regs.o (symbol from plugin)
GetDADDR                                          obj/MPU6050_raw/usb_regs.o (symbol from plugin)
GetENDPOINT                                       obj/MPU6050_raw/usb_regs.o (symbol from plugin)
GetEPAddress                                      obj/MPU6050_raw/usb_regs.o (symbol from plugin)
GetEPDblBuf0Addr                                  obj/MPU6050_raw/usb_regs.o (symbol from plugin)
GetEPDblBuf0Count                                 obj/MPU6050_raw/usb_regs.o (symbol from plugin)
GetEPDblBuf1Addr                                  obj/MPU6050_raw/usb_regs.o (symbol from plugin)
GetEPDblBuf1Count                                 obj/MPU6050_raw/usb_regs.o (symbol from plugin)
GetEPDblBufDir                                    obj/MPU6050_raw/usb_regs.o (symbol from plugin)
GetEPRxAddr                                       obj/MPU6050_raw/usb_regs.o (symbol from plugin)
                                                  obj/MPU6050_raw/usb_sil.o (symbol from plugin)
                                                  obj/MPU6050_raw/usb_core.o (symbol from plugin)
GetEPRxCount                                      obj/MPU6050_raw/usb_regs.o (symbol from plugin)
                                                  obj/MPU6050_raw/vcp/usb_endp.o (symbol from plugin)
                                                  obj/MPU6050_raw/usb_sil.o (symbol from plugin)
GetEPRxStatus                                     obj/MPU6050_raw/usb_regs.o (symbol from plugin)
GetEPTxAddr                                       obj/MPU6050_raw/usb_regs.o (symbol from plugin)
                                                  obj/MPU6050_raw/usb_sil.o (symbol from plugin)
                                                  obj/MPU6050_raw/usb_core.o (symbol from plugin)
GetEPTxCount                                      obj/MPU6050_raw/usb_regs.o (symbol from plugin)
GetEPTxStatus                                     obj/MPU6050_raw/usb_regs.o (symbol from plugin)
GetEPType                                         obj/MPU6050_raw/usb_regs.o (symbol from plugin)
GetFNR                                            obj/MPU6050_raw/usb_regs.o (symbol from plugin)
GetISTR                                           obj/MPU6050_raw/usb_regs.o (symbol from plugin)
GetRxStallStatus                                  obj/MPU6050_raw/usb_regs.o (symbol from plugin)
GetTxStallStatus                                  obj/MPU6050_raw/usb_regs.o (symbol from plugin)
Get_SerialNum                                     obj/MPU6050_raw/vcp/hw_config.o (symbol from plugin)
                                                  obj/MPU6050_raw/vcp/usb_prop.o (symbol from plugin)
HRTIM_ADCTriggerConfig                            obj/MPU6050_raw/stm32f30x_hrtim.o (symbol from plugin)
HRTIM_BurstDMAConfig                              obj/MPU6050_raw/stm32f30x_hrtim.o (symbol from plugin)
HRTIM_BurstModeConfig                             obj/MPU6050_raw/stm32f30x_hrtim.o (symbol from plugin)
HRTIM_BurstModeCtl                                obj/MPU6050_raw/stm32f30x_hrtim.o (symbol from plugin)
HRTIM_ChopperModeConfig                           obj/MPU6050_raw/stm32f30x_hrtim.o (symbol from plugin)
HRTIM_ClearCommonFlag                             obj/MPU6050_raw/stm32f30x_hrtim.o (symbol from plugin)
HRTIM_ClearCommonITPendingBit                     obj/MPU6050_raw/stm32f30x_hrtim.o (symbol from plugin)
HRTIM_ClearFlag                                   obj/MPU6050_raw/stm32f30x_hrtim.o (symbol from plugin)
HRTIM_ClearITPendingBit                           obj/MPU6050_raw/stm32f30x_hrtim.o (symbol from plugin)
HRTIM_DLLCalibrationStart                         obj/MPU6050_raw/stm32f30x_hrtim.o (symbol from plugin)
HRTIM_DMACmd                                      obj/MPU6050_raw/stm32f30x_hrtim.o (symbol from plugin)
HRTIM_DeInit                                      obj/MPU6050_raw/stm32f30x_hrtim.o (symbol from plugin)
HRTIM_DeadTimeConfig                              obj/MPU6050_raw/stm32f30x_hrtim.o (symbol from plugin)
HRTIM_EventConfig                                 obj/MPU6050_raw/stm32f30x_hrtim.o (symbol from plugin)
HRTIM_EventPrescalerConfig                        obj/MPU6050_raw/stm32f30x_hrtim.o (symbol from plugin)
HRTIM_FaultConfig                                 obj/MPU6050_raw/stm32f30x_hrtim.o (symbol from plugin)
HRTIM_FaultModeCtl                                obj/MPU6050_raw/stm32f30x_hrtim.o (symbol from plugin)
HRTIM_FaultPrescalerConfig                        obj/MPU6050_raw/stm32f30x_hrtim.o (symbol from plugin)
HRTIM_GetBurstStatus                              obj/MPU6050_raw/stm32f30x_hrtim.o (symbol from plugin)
HRTIM_GetCapturedValue                            obj/MPU6050_raw/stm32f30x_hrtim.o (symbol from plugin)
HRTIM_GetCommonFlagStatus                         obj/MPU6050_raw/stm32f30x_hrtim.o (symbol from plugin)
HRTIM_GetCommonITStatus                           obj/MPU6050_raw/stm32f30x_hrtim.o (symbol from plugin)
HRTIM_GetCurrentPushPullStatus                    obj/MPU6050_raw/stm32f30x_hrtim.o (symbol from plugin)
HRTIM_GetDelayedProtectionStatus                  obj/MPU6050_raw/stm32f30x_hrtim.o (symbol from plugin)
HRTIM_GetFlagStatus                               obj/MPU6050_raw/stm32f30x_hrtim.o (symbol from plugin)
HRTIM_GetITStatus                                 obj/MPU6050_raw/stm32f30x_hrtim.o (symbol from plugin)
HRTIM_GetIdlePushPullStatus                       obj/MPU6050_raw/stm32f30x_hrtim.o (symbol from plugin)
HRTIM_ITCommonConfig                              obj/MPU6050_raw/stm32f30x_hrtim.o (symbol from plugin)
HRTIM_ITConfig                                    obj/MPU6050_raw/stm32f30x_hrtim.o (symbol from plugin)
HRTIM_MasterSetCompare                            obj/MPU6050_raw/stm32f30x_hrtim.o (symbol from plugin)
HRTIM_SimpleBaseStart                             obj/MPU6050_raw/stm32f30x_hrtim.o (symbol from plugin)
HRTIM_SimpleBaseStop                              obj/MPU6050_raw/stm32f30x_hrtim.o (symbol from plugin)
HRTIM_SimpleBase_Init                             obj/MPU6050_raw/stm32f30x_hrtim.o (symbol from plugin)
HRTIM_SimpleCaptureChannelConfig                  obj/MPU6050_raw/stm32f30x_hrtim.o (symbol from plugin)
HRTIM_SimpleCaptureStart                          obj/MPU6050_raw/stm32f30x_hrtim.o (symbol from plugin)
HRTIM_SimpleCaptureStop                           obj/MPU6050_raw/stm32f30x_hrtim.o (symbol from plugin)
HRTIM_SimpleCapture_Init                          obj/MPU6050_raw/stm32f30x_hrtim.o (symbol from plugin)
HRTIM_SimpleOCChannelConfig                       obj/MPU6050_raw/stm32f30x_hrtim.o (symbol from plugin)
HRTIM_SimpleOCStart                               obj/MPU6050_raw/stm32f30x_hrtim.o (symbol from plugin)
HRTIM_SimpleOCStop                                obj/MPU6050_raw/stm32f30x_hrtim.o (symbol from plugin)
HRTIM_SimpleOC_Init                               obj/MPU6050_raw/stm32f30x_hrtim.o (symbol from plugin)
HRTIM_SimpleOnePulseChannelConfig                 obj/MPU6050_raw/stm32f30x_hrtim.o (symbol from plugin)
HRTIM_SimpleOnePulseStart                         obj/MPU6050_raw/stm32f30x_hrtim.o (symbol from plugin)
HRTIM_SimpleOnePulseStop                          obj/MPU6050_raw/stm32f30x_hrtim.o (symbol from plugin)
HRTIM_SimpleOnePulse_Init                         obj/MPU6050_raw/stm32f30x_hrtim.o (symbol from plugin)
HRTIM_SimplePWMChannelConfig                      obj/MPU6050_raw/stm32f30x_hrtim.o (symbol from plugin)
HRTIM_SimplePWMStart                              obj/MPU6050_raw/stm32f30x_hrtim.o (symbol from plugin)
HRTIM_SimplePWMStop                               obj/MPU6050_raw/stm32f30x_hrtim.o (symbol from plugin)
HRTIM_SimplePWM_Init                              obj/MPU6050_raw/stm32f30x_hrtim.o (symbol from plugin)
HRTIM_SlaveSetCompare                             obj/MPU6050_raw/stm32f30x_hrtim.o (symbol from plugin)
HRTIM_SoftwareCapture                             obj/MPU6050_raw/stm32f30x_hrtim.o (symbol from plugin)
HRTIM_SoftwareReset                               obj/MPU6050_raw/stm32f30x_hrtim.o (symbol from plugin)
HRTIM_SoftwareUpdate                              obj/MPU6050_raw/stm32f30x_hrtim.o (symbol from plugin)
HRTIM_SynchronizationConfig                       obj/MPU6050_raw/stm32f30x_hrtim.o (symbol from plugin)
HRTIM_TimerEventFilteringConfig                   obj/MPU6050_raw/stm32f30x_hrtim.o (symbol from plugin)
HRTIM_WaveformCaptureConfig                       obj/MPU6050_raw/stm32f30x_hrtim.o (symbol from plugin)
HRTIM_WaveformCompareConfig                       obj/MPU6050_raw/stm32f30x_hrtim.o (symbol from plugin)
HRTIM_WaveformCounterStart                        obj/MPU6050_raw/stm32f30x_hrtim.o (symbol from plugin)
HRTIM_WaveformCounterStop                         obj/MPU6050_raw/stm32f30x_hrtim.o (symbol from plugin)
HRTIM_WaveformGetOutputLevel                      obj/MPU6050_raw/stm32f30x_hrtim.o (symbol from plugin)
HRTIM_WaveformGetOutputState                      obj/MPU6050_raw/stm32f30x_hrtim.o (symbol from plugin)
HRTIM_WaveformOutputConfig                        obj/MPU6050_raw/stm32f30x_hrtim.o (symbol from plugin)
HRTIM_WaveformOutputStart                         obj/MPU6050_raw/stm32f30x_hrtim.o (symbol from plugin)
HRTIM_WaveformOutputStop                          obj/MPU6050_raw/stm32f30x_hrtim.o (symbol from plugin)
HRTIM_WaveformSetOutputLevel                      obj/MPU6050_raw/stm32f30x_hrtim.o (symbol from plugin)
HRTIM_WaveformTimerConfig                         obj/MPU6050_raw/stm32f30x_hrtim.o (symbol from plugin)
HRTIM_Waveform_Init                               obj/MPU6050_raw/stm32f30x_hrtim.o (symbol from plugin)
HSEStartUpStatus                                  obj/MPU6050_raw/vcp/hw_config.o (symbol from plugin)
HardFault_Handler                                 /tmp/ccm9M6LD.ltrans4.ltrans.o
                                                  obj/MPU6050_raw/Arduino.o (symbol from plugin)
                                                  obj/MPU6050_raw/startup_stm32f30x_md_gcc.o
HardwareSerial0::begin(unsigned long)             obj/MPU6050_raw/Arduino.o (symbol from plugin)
                                                  obj/MPU6050_raw.o (symbol from plugin)
HardwareSerial0::read()                           obj/MPU6050_raw/Arduino.o (symbol from plugin)
HardwareSerial1::begin(unsigned long)             obj/MPU6050_raw/Arduino.o (symbol from plugin)
HardwareSerial1::read()                           obj/MPU6050_raw/Arduino.o (symbol from plugin)
HardwareSerial::available()                       obj/MPU6050_raw/Arduino.o (symbol from plugin)
HardwareSerial::flush()                           obj/MPU6050_raw/Arduino.o (symbol from plugin)
                                                  obj/MPU6050_raw.o (symbol from plugin)
HardwareSerial::printf(char const*, ...)          obj/MPU6050_raw.o (symbol from plugin)
HardwareSerial::printf(char const*, ...) [clone .constprop.12] /tmp/ccm9M6LD.ltrans4.ltrans.o
                                                  /tmp/ccm9M6LD.ltrans0.ltrans.o
HardwareSerial::write(unsigned char)              obj/MPU6050_raw/Arduino.o (symbol from plugin)
                                                  obj/MPU6050_raw.o (symbol from plugin)
HardwareWire::available()                         obj/MPU6050_raw/HardwareWire.o (symbol from plugin)
                                                  obj/MPU6050_raw/MPU6050.o (symbol from plugin)
HardwareWire::begin()                             obj/MPU6050_raw/HardwareWire.o (symbol from plugin)
                                                  obj/MPU6050_raw.o (symbol from plugin)
HardwareWire::beginTransmission(unsigned char)    obj/MPU6050_raw/HardwareWire.o (symbol from plugin)
                                                  obj/MPU6050_raw/MPU6050.o (symbol from plugin)
HardwareWire::endTransmission(bool)               obj/MPU6050_raw/HardwareWire.o (symbol from plugin)
                                                  obj/MPU6050_raw/MPU6050.o (symbol from plugin)
HardwareWire::read()                              obj/MPU6050_raw/HardwareWire.o (symbol from plugin)
                                                  obj/MPU6050_raw/MPU6050.o (symbol from plugin)
HardwareWire::requestFrom(unsigned char, unsigned char) obj/MPU6050_raw/HardwareWire.o (symbol from plugin)
                                                  obj/MPU6050_raw/MPU6050.o (symbol from plugin)
HardwareWire::write(unsigned char)                obj/MPU6050_raw/HardwareWire.o (symbol from plugin)
                                                  obj/MPU6050_raw/MPU6050.o (symbol from plugin)
I2C1_ER_IRQHandler                                obj/MPU6050_raw/startup_stm32f30x_md_gcc.o
I2C1_EV_IRQHandler                                obj/MPU6050_raw/startup_stm32f30x_md_gcc.o
I2C2_ER_IRQHandler                                obj/MPU6050_raw/startup_stm32f30x_md_gcc.o
I2C2_EV_IRQHandler                                obj/MPU6050_raw/startup_stm32f30x_md_gcc.o
I2C_10BitAddressHeaderCmd                         obj/MPU6050_raw/stm32f30x_i2c.o (symbol from plugin)
I2C_10BitAddressingModeCmd                        obj/MPU6050_raw/stm32f30x_i2c.o (symbol from plugin)
I2C_AcknowledgeConfig                             obj/MPU6050_raw/stm32f30x_i2c.o (symbol from plugin)
I2C_AutoEndCmd                                    obj/MPU6050_raw/stm32f30x_i2c.o (symbol from plugin)
I2C_CalculatePEC                                  obj/MPU6050_raw/stm32f30x_i2c.o (symbol from plugin)
I2C_ClearFlag                                     obj/MPU6050_raw/stm32f30x_i2c.o (symbol from plugin)
                                                  obj/MPU6050_raw/HardwareWire.o (symbol from plugin)
I2C_ClearITPendingBit                             obj/MPU6050_raw/stm32f30x_i2c.o (symbol from plugin)
I2C_ClockTimeoutCmd                               obj/MPU6050_raw/stm32f30x_i2c.o (symbol from plugin)
I2C_Cmd                                           obj/MPU6050_raw/stm32f30x_i2c.o (symbol from plugin)
                                                  obj/MPU6050_raw/HardwareWire.o (symbol from plugin)
I2C_DMACmd                                        obj/MPU6050_raw/stm32f30x_i2c.o (symbol from plugin)
I2C_DeInit                                        obj/MPU6050_raw/stm32f30x_i2c.o (symbol from plugin)
I2C_DualAddressCmd                                obj/MPU6050_raw/stm32f30x_i2c.o (symbol from plugin)
I2C_ExtendedClockTimeoutCmd                       obj/MPU6050_raw/stm32f30x_i2c.o (symbol from plugin)
I2C_GeneralCallCmd                                obj/MPU6050_raw/stm32f30x_i2c.o (symbol from plugin)
I2C_GenerateSTART                                 obj/MPU6050_raw/stm32f30x_i2c.o (symbol from plugin)
I2C_GenerateSTOP                                  obj/MPU6050_raw/stm32f30x_i2c.o (symbol from plugin)
I2C_GetAddressMatched                             obj/MPU6050_raw/stm32f30x_i2c.o (symbol from plugin)
I2C_GetFlagStatus                                 obj/MPU6050_raw/stm32f30x_i2c.o (symbol from plugin)
                                                  obj/MPU6050_raw/HardwareWire.o (symbol from plugin)
I2C_GetITStatus                                   obj/MPU6050_raw/stm32f30x_i2c.o (symbol from plugin)
I2C_GetPEC                                        obj/MPU6050_raw/stm32f30x_i2c.o (symbol from plugin)
I2C_GetTransferDirection                          obj/MPU6050_raw/stm32f30x_i2c.o (symbol from plugin)
I2C_ITConfig                                      obj/MPU6050_raw/stm32f30x_i2c.o (symbol from plugin)
I2C_IdleClockTimeoutCmd                           obj/MPU6050_raw/stm32f30x_i2c.o (symbol from plugin)
I2C_Init                                          obj/MPU6050_raw/stm32f30x_i2c.o (symbol from plugin)
                                                  obj/MPU6050_raw/HardwareWire.o (symbol from plugin)
I2C_MasterRequestConfig                           obj/MPU6050_raw/stm32f30x_i2c.o (symbol from plugin)
I2C_NumberOfBytesConfig                           obj/MPU6050_raw/stm32f30x_i2c.o (symbol from plugin)
I2C_OwnAddress2Config                             obj/MPU6050_raw/stm32f30x_i2c.o (symbol from plugin)
I2C_PECRequestCmd                                 obj/MPU6050_raw/stm32f30x_i2c.o (symbol from plugin)
I2C_ReadRegister                                  obj/MPU6050_raw/stm32f30x_i2c.o (symbol from plugin)
I2C_ReceiveData                                   obj/MPU6050_raw/stm32f30x_i2c.o (symbol from plugin)
                                                  obj/MPU6050_raw/HardwareWire.o (symbol from plugin)
I2C_ReloadCmd                                     obj/MPU6050_raw/stm32f30x_i2c.o (symbol from plugin)
I2C_SMBusAlertCmd                                 obj/MPU6050_raw/stm32f30x_i2c.o (symbol from plugin)
I2C_SendData                                      obj/MPU6050_raw/stm32f30x_i2c.o (symbol from plugin)
                                                  obj/MPU6050_raw/HardwareWire.o (symbol from plugin)
I2C_SlaveAddressConfig                            obj/MPU6050_raw/stm32f30x_i2c.o (symbol from plugin)
I2C_SlaveByteControlCmd                           obj/MPU6050_raw/stm32f30x_i2c.o (symbol from plugin)
I2C_SoftwareResetCmd                              obj/MPU6050_raw/stm32f30x_i2c.o (symbol from plugin)
I2C_StopModeCmd                                   obj/MPU6050_raw/stm32f30x_i2c.o (symbol from plugin)
I2C_StretchClockCmd                               obj/MPU6050_raw/stm32f30x_i2c.o (symbol from plugin)
I2C_StructInit                                    obj/MPU6050_raw/stm32f30x_i2c.o (symbol from plugin)
                                                  obj/MPU6050_raw/HardwareWire.o (symbol from plugin)
I2C_TimeoutAConfig                                obj/MPU6050_raw/stm32f30x_i2c.o (symbol from plugin)
I2C_TimeoutBConfig                                obj/MPU6050_raw/stm32f30x_i2c.o (symbol from plugin)
I2C_TransferHandling                              obj/MPU6050_raw/stm32f30x_i2c.o (symbol from plugin)
                                                  obj/MPU6050_raw/HardwareWire.o (symbol from plugin)
I2S_Cmd                                           obj/MPU6050_raw/stm32f30x_spi.o (symbol from plugin)
I2S_FullDuplexConfig                              obj/MPU6050_raw/stm32f30x_spi.o (symbol from plugin)
I2S_Init                                          obj/MPU6050_raw/stm32f30x_spi.o (symbol from plugin)
I2S_StructInit                                    obj/MPU6050_raw/stm32f30x_spi.o (symbol from plugin)
IOConfigGPIO                                      obj/MPU6050_raw/io.o (symbol from plugin)
IOConfigGPIOAF                                    obj/MPU6050_raw/io.o (symbol from plugin)
IOGetByTag                                        obj/MPU6050_raw/io.o (symbol from plugin)
IOGetOwner                                        obj/MPU6050_raw/io.o (symbol from plugin)
IOGetResources                                    obj/MPU6050_raw/io.o (symbol from plugin)
IOHi                                              obj/MPU6050_raw/io.o (symbol from plugin)
IOInit                                            obj/MPU6050_raw/io.o (symbol from plugin)
IOInitGlobal                                      obj/MPU6050_raw/io.o (symbol from plugin)
                                                  obj/MPU6050_raw/Arduino.o (symbol from plugin)
IOLo                                              obj/MPU6050_raw/io.o (symbol from plugin)
IORead                                            obj/MPU6050_raw/io.o (symbol from plugin)
IORelease                                         obj/MPU6050_raw/io.o (symbol from plugin)
IOToggle                                          obj/MPU6050_raw/io.o (symbol from plugin)
IOWrite                                           obj/MPU6050_raw/io.o (symbol from plugin)
IO_EXTI_Line                                      obj/MPU6050_raw/io.o (symbol from plugin)
                                                  obj/MPU6050_raw/exti.o (symbol from plugin)
IO_EXTI_PinSource                                 obj/MPU6050_raw/io.o (symbol from plugin)
                                                  obj/MPU6050_raw/exti.o (symbol from plugin)
IO_EXTI_PortSourceGPIO                            obj/MPU6050_raw/io.o (symbol from plugin)
                                                  obj/MPU6050_raw/exti.o (symbol from plugin)
IO_GPIO                                           obj/MPU6050_raw/io.o (symbol from plugin)
IO_GPIOPinIdx                                     obj/MPU6050_raw/io.o (symbol from plugin)
                                                  obj/MPU6050_raw/exti.o (symbol from plugin)
IO_GPIOPortIdx                                    obj/MPU6050_raw/io.o (symbol from plugin)
IO_GPIO_PinSource                                 obj/MPU6050_raw/io.o (symbol from plugin)
IO_GPIO_PortSource                                obj/MPU6050_raw/io.o (symbol from plugin)
IO_Pin                                            obj/MPU6050_raw/io.o (symbol from plugin)
IO_Rec                                            obj/MPU6050_raw/io.o (symbol from plugin)
IWDG_Enable                                       obj/MPU6050_raw/stm32f30x_iwdg.o (symbol from plugin)
IWDG_GetFlagStatus                                obj/MPU6050_raw/stm32f30x_iwdg.o (symbol from plugin)
IWDG_ReloadCounter                                obj/MPU6050_raw/stm32f30x_iwdg.o (symbol from plugin)
IWDG_SetPrescaler                                 obj/MPU6050_raw/stm32f30x_iwdg.o (symbol from plugin)
IWDG_SetReload                                    obj/MPU6050_raw/stm32f30x_iwdg.o (symbol from plugin)
IWDG_SetWindowValue                               obj/MPU6050_raw/stm32f30x_iwdg.o (symbol from plugin)
IWDG_WriteAccessCmd                               obj/MPU6050_raw/stm32f30x_iwdg.o (symbol from plugin)
In0_Process                                       obj/MPU6050_raw/usb_core.o (symbol from plugin)
                                                  obj/MPU6050_raw/usb_int.o (symbol from plugin)
IntToUnicode.lto_priv.53                          /tmp/ccm9M6LD.ltrans2.ltrans.o
                                                  /tmp/ccm9M6LD.ltrans3.ltrans.o
Leave_LowPowerMode                                obj/MPU6050_raw/vcp/hw_config.o (symbol from plugin)
                                                  obj/MPU6050_raw/vcp/usb_pwr.o (symbol from plugin)
MPU6050::MPU6050(unsigned char)                   obj/MPU6050_raw/MPU6050.o (symbol from plugin)
MPU6050::MPU6050(unsigned char)                   obj/MPU6050_raw/MPU6050.o (symbol from plugin)
                                                  obj/MPU6050_raw.o (symbol from plugin)
MPU6050::begin(mpu_accel_range, mpu_gyro_range)   obj/MPU6050_raw/MPU6050.o (symbol from plugin)
                                                  obj/MPU6050_raw.o (symbol from plugin)
MPU6050::getMotion6Counts(short*, short*, short*, short*, short*, short*) obj/MPU6050_raw/MPU6050.o (symbol from plugin)
                                                  obj/MPU6050_raw.o (symbol from plugin)
MPU6050::readAccelData(short*, short*, short*)    obj/MPU6050_raw/MPU6050.o (symbol from plugin)
MPU6050::readByte(unsigned char)                  obj/MPU6050_raw/MPU6050.o (symbol from plugin)
MPU6050::readBytes(unsigned char, unsigned char, unsigned char*) /tmp/ccm9M6LD.ltrans4.ltrans.o
                                                  obj/MPU6050_raw/MPU6050.o (symbol from plugin)
                                                  /tmp/ccm9M6LD.ltrans0.ltrans.o
MPU6050::readGyroData(short*, short*, short*)     obj/MPU6050_raw/MPU6050.o (symbol from plugin)
MPU6050::writeByte(unsigned char, unsigned char)  /tmp/ccm9M6LD.ltrans4.ltrans.o
                                                  obj/MPU6050_raw/MPU6050.o (symbol from plugin)
                                                  /tmp/ccm9M6LD.ltrans0.ltrans.o
MemManage_Handler                                 /tmp/ccm9M6LD.ltrans2.ltrans.o
                                                  obj/MPU6050_raw/vcp/stm32_it.o (symbol from plugin)
                                                  obj/MPU6050_raw/startup_stm32f30x_md_gcc.o
NMI_Handler                                       /tmp/ccm9M6LD.ltrans2.ltrans.o
                                                  obj/MPU6050_raw/vcp/stm32_it.o (symbol from plugin)
                                                  obj/MPU6050_raw/startup_stm32f30x_md_gcc.o
NOP_Process                                       /tmp/ccm9M6LD.ltrans2.ltrans.o
                                                  obj/MPU6050_raw/usb_core.o (symbol from plugin)
                                                  /tmp/ccm9M6LD.ltrans0.ltrans.o
                                                  obj/MPU6050_raw/vcp/usb_prop.o (symbol from plugin)
                                                  obj/MPU6050_raw/vcp/usb_istr.o (symbol from plugin)
NVIC_Init                                         obj/MPU6050_raw/stm32f30x_misc.o (symbol from plugin)
                                                  obj/MPU6050_raw/vcp/hw_config.o (symbol from plugin)
                                                  obj/MPU6050_raw/dma.o (symbol from plugin)
                                                  obj/MPU6050_raw/exti.o (symbol from plugin)
                                                  obj/MPU6050_raw/serial_uart_stm32f30x.o (symbol from plugin)
                                                  obj/MPU6050_raw/timer.o (symbol from plugin)
NVIC_Init.part.0.constprop.37                     /tmp/ccm9M6LD.ltrans4.ltrans.o
                                                  /tmp/ccm9M6LD.ltrans0.ltrans.o
NVIC_PriorityGroupConfig                          obj/MPU6050_raw/stm32f30x_misc.o (symbol from plugin)
                                                  obj/MPU6050_raw/vcp/hw_config.o (symbol from plugin)
                                                  obj/MPU6050_raw/system.o (symbol from plugin)
NVIC_SetVectorTable                               obj/MPU6050_raw/stm32f30x_misc.o (symbol from plugin)
NVIC_SystemLPConfig                               obj/MPU6050_raw/stm32f30x_misc.o (symbol from plugin)
OPAMP_Cmd                                         obj/MPU6050_raw/stm32f30x_opamp.o (symbol from plugin)
OPAMP_DeInit                                      obj/MPU6050_raw/stm32f30x_opamp.o (symbol from plugin)
OPAMP_GetOutputLevel                              obj/MPU6050_raw/stm32f30x_opamp.o (symbol from plugin)
OPAMP_Init                                        obj/MPU6050_raw/stm32f30x_opamp.o (symbol from plugin)
OPAMP_LockConfig                                  obj/MPU6050_raw/stm32f30x_opamp.o (symbol from plugin)
OPAMP_OffsetTrimConfig                            obj/MPU6050_raw/stm32f30x_opamp.o (symbol from plugin)
OPAMP_OffsetTrimModeSelect                        obj/MPU6050_raw/stm32f30x_opamp.o (symbol from plugin)
OPAMP_PGAConfig                                   obj/MPU6050_raw/stm32f30x_opamp.o (symbol from plugin)
OPAMP_StartCalibration                            obj/MPU6050_raw/stm32f30x_opamp.o (symbol from plugin)
OPAMP_StructInit                                  obj/MPU6050_raw/stm32f30x_opamp.o (symbol from plugin)
OPAMP_TimerControlledMuxCmd                       obj/MPU6050_raw/stm32f30x_opamp.o (symbol from plugin)
OPAMP_TimerControlledMuxConfig                    obj/MPU6050_raw/stm32f30x_opamp.o (symbol from plugin)
OPAMP_VrefConfig                                  obj/MPU6050_raw/stm32f30x_opamp.o (symbol from plugin)
OPAMP_VrefConnectADCCmd                           obj/MPU6050_raw/stm32f30x_opamp.o (symbol from plugin)
OPAMP_VrefConnectNonInvertingInput                obj/MPU6050_raw/stm32f30x_opamp.o (symbol from plugin)
Out0_Process                                      obj/MPU6050_raw/usb_core.o (symbol from plugin)
                                                  obj/MPU6050_raw/usb_int.o (symbol from plugin)
PMAToUserBufferCopy                               obj/MPU6050_raw/usb_mem.o (symbol from plugin)
                                                  obj/MPU6050_raw/vcp/usb_endp.o (symbol from plugin)
                                                  obj/MPU6050_raw/usb_sil.o (symbol from plugin)
                                                  obj/MPU6050_raw/usb_core.o (symbol from plugin)
PVD_IRQHandler                                    obj/MPU6050_raw/startup_stm32f30x_md_gcc.o
PWR_BackupAccessCmd                               obj/MPU6050_raw/stm32f30x_pwr.o (symbol from plugin)
PWR_ClearFlag                                     obj/MPU6050_raw/stm32f30x_pwr.o (symbol from plugin)
PWR_DeInit                                        obj/MPU6050_raw/stm32f30x_pwr.o (symbol from plugin)
PWR_EnterSTANDBYMode                              obj/MPU6050_raw/stm32f30x_pwr.o (symbol from plugin)
PWR_EnterSTOPMode                                 obj/MPU6050_raw/stm32f30x_pwr.o (symbol from plugin)
PWR_EnterSleepMode                                obj/MPU6050_raw/stm32f30x_pwr.o (symbol from plugin)
PWR_GetFlagStatus                                 obj/MPU6050_raw/stm32f30x_pwr.o (symbol from plugin)
PWR_PVDCmd                                        obj/MPU6050_raw/stm32f30x_pwr.o (symbol from plugin)
PWR_PVDLevelConfig                                obj/MPU6050_raw/stm32f30x_pwr.o (symbol from plugin)
PWR_WakeUpPinCmd                                  obj/MPU6050_raw/stm32f30x_pwr.o (symbol from plugin)
PendSV_Handler                                    /tmp/ccm9M6LD.ltrans2.ltrans.o
                                                  obj/MPU6050_raw/vcp/stm32_it.o (symbol from plugin)
                                                  obj/MPU6050_raw/startup_stm32f30x_md_gcc.o
Post0_Process                                     /tmp/ccm9M6LD.ltrans1.ltrans.o
                                                  obj/MPU6050_raw/usb_core.o (symbol from plugin)
                                                  /tmp/ccm9M6LD.ltrans2.ltrans.o
PowerOff                                          obj/MPU6050_raw/vcp/usb_pwr.o (symbol from plugin)
PowerOn                                           obj/MPU6050_raw/vcp/usb_pwr.o (symbol from plugin)
                                                  obj/MPU6050_raw/vcp/usb_prop.o (symbol from plugin)
RCC_ADCCLKConfig                                  obj/MPU6050_raw/stm32f30x_rcc.o (symbol from plugin)
RCC_AHBPeriphClockCmd                             obj/MPU6050_raw/stm32f30x_rcc.o (symbol from plugin)
                                                  obj/MPU6050_raw/HardwareWire.o (symbol from plugin)
                                                  obj/MPU6050_raw/usb_io.o (symbol from plugin)
                                                  obj/MPU6050_raw/vcp/hw_config.o (symbol from plugin)
                                                  obj/MPU6050_raw/dma.o (symbol from plugin)
                                                  obj/MPU6050_raw/system_stm32f30x.o (symbol from plugin)
                                                  obj/MPU6050_raw/light_led_stm32f30x.o (symbol from plugin)
                                                  obj/MPU6050_raw/timer.o (symbol from plugin)
RCC_AHBPeriphResetCmd                             obj/MPU6050_raw/stm32f30x_rcc.o (symbol from plugin)
                                                  obj/MPU6050_raw/stm32f30x_adc.o (symbol from plugin)
                                                  obj/MPU6050_raw/stm32f30x_gpio.o (symbol from plugin)
RCC_APB1PeriphClockCmd                            obj/MPU6050_raw/stm32f30x_rcc.o (symbol from plugin)
                                                  obj/MPU6050_raw/HardwareWire.o (symbol from plugin)
                                                  obj/MPU6050_raw/vcp/hw_config.o (symbol from plugin)
                                                  obj/MPU6050_raw/serial_uart_stm32f30x.o (symbol from plugin)
                                                  obj/MPU6050_raw/timer.o (symbol from plugin)
RCC_APB1PeriphResetCmd                            obj/MPU6050_raw/stm32f30x_rcc.o (symbol from plugin)
                                                  obj/MPU6050_raw/stm32f30x_wwdg.o (symbol from plugin)
                                                  obj/MPU6050_raw/stm32f30x_usart.o (symbol from plugin)
                                                  obj/MPU6050_raw/stm32f30x_tim.o (symbol from plugin)
                                                  obj/MPU6050_raw/stm32f30x_spi.o (symbol from plugin)
                                                  obj/MPU6050_raw/stm32f30x_pwr.o (symbol from plugin)
                                                  obj/MPU6050_raw/stm32f30x_i2c.o (symbol from plugin)
                                                  obj/MPU6050_raw/stm32f30x_dac.o (symbol from plugin)
RCC_APB2PeriphClockCmd                            obj/MPU6050_raw/stm32f30x_rcc.o (symbol from plugin)
                                                  obj/MPU6050_raw/vcp/hw_config.o (symbol from plugin)
                                                  obj/MPU6050_raw/exti.o (symbol from plugin)
                                                  obj/MPU6050_raw/serial_uart_stm32f30x.o (symbol from plugin)
                                                  obj/MPU6050_raw/timer.o (symbol from plugin)
RCC_APB2PeriphResetCmd                            obj/MPU6050_raw/stm32f30x_rcc.o (symbol from plugin)
                                                  obj/MPU6050_raw/stm32f30x_usart.o (symbol from plugin)
                                                  obj/MPU6050_raw/stm32f30x_tim.o (symbol from plugin)
                                                  obj/MPU6050_raw/stm32f30x_spi.o (symbol from plugin)
                                                  obj/MPU6050_raw/stm32f30x_hrtim.o (symbol from plugin)
RCC_AdjustHSICalibrationValue                     obj/MPU6050_raw/stm32f30x_rcc.o (symbol from plugin)
RCC_BackupResetCmd                                obj/MPU6050_raw/stm32f30x_rcc.o (symbol from plugin)
RCC_ClearFlag                                     obj/MPU6050_raw/stm32f30x_rcc.o (symbol from plugin)
                                                  obj/MPU6050_raw/system.o (symbol from plugin)
RCC_ClearITPendingBit                             obj/MPU6050_raw/stm32f30x_rcc.o (symbol from plugin)
RCC_ClockCmd                                      obj/MPU6050_raw/io.o (symbol from plugin)
RCC_ClockSecuritySystemCmd                        obj/MPU6050_raw/stm32f30x_rcc.o (symbol from plugin)
RCC_DeInit                                        obj/MPU6050_raw/stm32f30x_rcc.o (symbol from plugin)
RCC_GetClocksFreq                                 obj/MPU6050_raw/stm32f30x_rcc.o (symbol from plugin)
                                                  obj/MPU6050_raw/stm32f30x_usart.o (symbol from plugin)
                                                  obj/MPU6050_raw/stm32f30x_spi.o (symbol from plugin)
                                                  obj/MPU6050_raw/system.o (symbol from plugin)
RCC_GetFlagStatus                                 obj/MPU6050_raw/stm32f30x_rcc.o (symbol from plugin)
RCC_GetITStatus                                   obj/MPU6050_raw/stm32f30x_rcc.o (symbol from plugin)
RCC_GetSYSCLKSource                               obj/MPU6050_raw/stm32f30x_rcc.o (symbol from plugin)
RCC_HCLKConfig                                    obj/MPU6050_raw/stm32f30x_rcc.o (symbol from plugin)
RCC_HRTIM1CLKConfig                               obj/MPU6050_raw/stm32f30x_rcc.o (symbol from plugin)
RCC_HSEConfig                                     obj/MPU6050_raw/stm32f30x_rcc.o (symbol from plugin)
RCC_HSICmd                                        obj/MPU6050_raw/stm32f30x_rcc.o (symbol from plugin)
RCC_I2CCLKConfig                                  obj/MPU6050_raw/stm32f30x_rcc.o (symbol from plugin)
                                                  obj/MPU6050_raw/HardwareWire.o (symbol from plugin)
RCC_I2SCLKConfig                                  obj/MPU6050_raw/stm32f30x_rcc.o (symbol from plugin)
RCC_IRQHandler                                    obj/MPU6050_raw/startup_stm32f30x_md_gcc.o
RCC_ITConfig                                      obj/MPU6050_raw/stm32f30x_rcc.o (symbol from plugin)
RCC_LSEConfig                                     obj/MPU6050_raw/stm32f30x_rcc.o (symbol from plugin)
RCC_LSEDriveConfig                                obj/MPU6050_raw/stm32f30x_rcc.o (symbol from plugin)
RCC_LSICmd                                        obj/MPU6050_raw/stm32f30x_rcc.o (symbol from plugin)
RCC_MCOConfig                                     obj/MPU6050_raw/stm32f30x_rcc.o (symbol from plugin)
RCC_PCLK1Config                                   obj/MPU6050_raw/stm32f30x_rcc.o (symbol from plugin)
RCC_PCLK2Config                                   obj/MPU6050_raw/stm32f30x_rcc.o (symbol from plugin)
RCC_PLLCmd                                        obj/MPU6050_raw/stm32f30x_rcc.o (symbol from plugin)
RCC_PLLConfig                                     obj/MPU6050_raw/stm32f30x_rcc.o (symbol from plugin)
RCC_PREDIV1Config                                 obj/MPU6050_raw/stm32f30x_rcc.o (symbol from plugin)
RCC_RTCCLKCmd                                     obj/MPU6050_raw/stm32f30x_rcc.o (symbol from plugin)
RCC_RTCCLKConfig                                  obj/MPU6050_raw/stm32f30x_rcc.o (symbol from plugin)
RCC_SYSCLKConfig                                  obj/MPU6050_raw/stm32f30x_rcc.o (symbol from plugin)
RCC_TIMCLKConfig                                  obj/MPU6050_raw/stm32f30x_rcc.o (symbol from plugin)
RCC_USARTCLKConfig                                obj/MPU6050_raw/stm32f30x_rcc.o (symbol from plugin)
RCC_USBCLKConfig                                  obj/MPU6050_raw/stm32f30x_rcc.o (symbol from plugin)
                                                  obj/MPU6050_raw/vcp/hw_config.o (symbol from plugin)
RCC_WaitForHSEStartUp                             obj/MPU6050_raw/stm32f30x_rcc.o (symbol from plugin)
RTC_AlarmCmd                                      obj/MPU6050_raw/stm32f30x_rtc.o (symbol from plugin)
RTC_AlarmStructInit                               obj/MPU6050_raw/stm32f30x_rtc.o (symbol from plugin)
RTC_AlarmSubSecondConfig                          obj/MPU6050_raw/stm32f30x_rtc.o (symbol from plugin)
RTC_Alarm_IRQHandler                              obj/MPU6050_raw/startup_stm32f30x_md_gcc.o
RTC_BypassShadowCmd                               obj/MPU6050_raw/stm32f30x_rtc.o (symbol from plugin)
RTC_CalibOutputCmd                                obj/MPU6050_raw/stm32f30x_rtc.o (symbol from plugin)
RTC_CalibOutputConfig                             obj/MPU6050_raw/stm32f30x_rtc.o (symbol from plugin)
RTC_ClearFlag                                     obj/MPU6050_raw/stm32f30x_rtc.o (symbol from plugin)
RTC_ClearITPendingBit                             obj/MPU6050_raw/stm32f30x_rtc.o (symbol from plugin)
RTC_DateStructInit                                obj/MPU6050_raw/stm32f30x_rtc.o (symbol from plugin)
RTC_DayLightSavingConfig                          obj/MPU6050_raw/stm32f30x_rtc.o (symbol from plugin)
RTC_DeInit                                        obj/MPU6050_raw/stm32f30x_rtc.o (symbol from plugin)
RTC_EnterInitMode                                 obj/MPU6050_raw/stm32f30x_rtc.o (symbol from plugin)
RTC_ExitInitMode                                  obj/MPU6050_raw/stm32f30x_rtc.o (symbol from plugin)
RTC_GetAlarm                                      obj/MPU6050_raw/stm32f30x_rtc.o (symbol from plugin)
RTC_GetAlarmSubSecond                             obj/MPU6050_raw/stm32f30x_rtc.o (symbol from plugin)
RTC_GetDate                                       obj/MPU6050_raw/stm32f30x_rtc.o (symbol from plugin)
RTC_GetFlagStatus                                 obj/MPU6050_raw/stm32f30x_rtc.o (symbol from plugin)
RTC_GetITStatus                                   obj/MPU6050_raw/stm32f30x_rtc.o (symbol from plugin)
RTC_GetStoreOperation                             obj/MPU6050_raw/stm32f30x_rtc.o (symbol from plugin)
RTC_GetSubSecond                                  obj/MPU6050_raw/stm32f30x_rtc.o (symbol from plugin)
RTC_GetTime                                       obj/MPU6050_raw/stm32f30x_rtc.o (symbol from plugin)
RTC_GetTimeStamp                                  obj/MPU6050_raw/stm32f30x_rtc.o (symbol from plugin)
RTC_GetTimeStampSubSecond                         obj/MPU6050_raw/stm32f30x_rtc.o (symbol from plugin)
RTC_GetWakeUpCounter                              obj/MPU6050_raw/stm32f30x_rtc.o (symbol from plugin)
RTC_ITConfig                                      obj/MPU6050_raw/stm32f30x_rtc.o (symbol from plugin)
RTC_Init                                          obj/MPU6050_raw/stm32f30x_rtc.o (symbol from plugin)
RTC_OutputConfig                                  obj/MPU6050_raw/stm32f30x_rtc.o (symbol from plugin)
RTC_OutputTypeConfig                              obj/MPU6050_raw/stm32f30x_rtc.o (symbol from plugin)
RTC_ReadBackupRegister                            obj/MPU6050_raw/stm32f30x_rtc.o (symbol from plugin)
RTC_RefClockCmd                                   obj/MPU6050_raw/stm32f30x_rtc.o (symbol from plugin)
RTC_SetAlarm                                      obj/MPU6050_raw/stm32f30x_rtc.o (symbol from plugin)
RTC_SetDate                                       obj/MPU6050_raw/stm32f30x_rtc.o (symbol from plugin)
RTC_SetTime                                       obj/MPU6050_raw/stm32f30x_rtc.o (symbol from plugin)
RTC_SetWakeUpCounter                              obj/MPU6050_raw/stm32f30x_rtc.o (symbol from plugin)
RTC_SmoothCalibConfig                             obj/MPU6050_raw/stm32f30x_rtc.o (symbol from plugin)
RTC_StructInit                                    obj/MPU6050_raw/stm32f30x_rtc.o (symbol from plugin)
RTC_SynchroShiftConfig                            obj/MPU6050_raw/stm32f30x_rtc.o (symbol from plugin)
RTC_TamperCmd                                     obj/MPU6050_raw/stm32f30x_rtc.o (symbol from plugin)
RTC_TamperFilterConfig                            obj/MPU6050_raw/stm32f30x_rtc.o (symbol from plugin)
RTC_TamperPinsPrechargeDuration                   obj/MPU6050_raw/stm32f30x_rtc.o (symbol from plugin)
RTC_TamperPullUpCmd                               obj/MPU6050_raw/stm32f30x_rtc.o (symbol from plugin)
RTC_TamperSamplingFreqConfig                      obj/MPU6050_raw/stm32f30x_rtc.o (symbol from plugin)
RTC_TamperTriggerConfig                           obj/MPU6050_raw/stm32f30x_rtc.o (symbol from plugin)
RTC_TimeStampCmd                                  obj/MPU6050_raw/stm32f30x_rtc.o (symbol from plugin)
RTC_TimeStampOnTamperDetectionCmd                 obj/MPU6050_raw/stm32f30x_rtc.o (symbol from plugin)
RTC_TimeStructInit                                obj/MPU6050_raw/stm32f30x_rtc.o (symbol from plugin)
RTC_WKUP_IRQHandler                               obj/MPU6050_raw/startup_stm32f30x_md_gcc.o
RTC_WaitForSynchro                                obj/MPU6050_raw/stm32f30x_rtc.o (symbol from plugin)
RTC_WakeUpClockConfig                             obj/MPU6050_raw/stm32f30x_rtc.o (symbol from plugin)
RTC_WakeUpCmd                                     obj/MPU6050_raw/stm32f30x_rtc.o (symbol from plugin)
RTC_WriteBackupRegister                           obj/MPU6050_raw/stm32f30x_rtc.o (symbol from plugin)
RTC_WriteProtectionCmd                            obj/MPU6050_raw/stm32f30x_rtc.o (symbol from plugin)
Request                                           obj/MPU6050_raw/vcp/usb_prop.o (symbol from plugin)
Reset_Handler                                     obj/MPU6050_raw/startup_stm32f30x_md_gcc.o
Resume                                            obj/MPU6050_raw/vcp/usb_pwr.o (symbol from plugin)
                                                  obj/MPU6050_raw/vcp/usb_istr.o (symbol from plugin)
ResumeS                                           obj/MPU6050_raw/vcp/usb_pwr.o (symbol from plugin)
Resume_Init                                       /tmp/ccm9M6LD.ltrans3.ltrans.o
                                                  obj/MPU6050_raw/vcp/usb_pwr.o (symbol from plugin)
                                                  /tmp/ccm9M6LD.ltrans2.ltrans.o
SPI1_IRQHandler                                   obj/MPU6050_raw/startup_stm32f30x_md_gcc.o
SPI2_IRQHandler                                   obj/MPU6050_raw/startup_stm32f30x_md_gcc.o
SPI3_IRQHandler                                   obj/MPU6050_raw/startup_stm32f30x_md_gcc.o
SPI_BiDirectionalLineConfig                       obj/MPU6050_raw/stm32f30x_spi.o (symbol from plugin)
SPI_CRCLengthConfig                               obj/MPU6050_raw/stm32f30x_spi.o (symbol from plugin)
SPI_CalculateCRC                                  obj/MPU6050_raw/stm32f30x_spi.o (symbol from plugin)
SPI_Cmd                                           obj/MPU6050_raw/stm32f30x_spi.o (symbol from plugin)
SPI_DataSizeConfig                                obj/MPU6050_raw/stm32f30x_spi.o (symbol from plugin)
SPI_GetCRC                                        obj/MPU6050_raw/stm32f30x_spi.o (symbol from plugin)
SPI_GetCRCPolynomial                              obj/MPU6050_raw/stm32f30x_spi.o (symbol from plugin)
SPI_GetReceptionFIFOStatus                        obj/MPU6050_raw/stm32f30x_spi.o (symbol from plugin)
SPI_GetTransmissionFIFOStatus                     obj/MPU6050_raw/stm32f30x_spi.o (symbol from plugin)
SPI_I2S_ClearFlag                                 obj/MPU6050_raw/stm32f30x_spi.o (symbol from plugin)
SPI_I2S_DMACmd                                    obj/MPU6050_raw/stm32f30x_spi.o (symbol from plugin)
SPI_I2S_DeInit                                    obj/MPU6050_raw/stm32f30x_spi.o (symbol from plugin)
SPI_I2S_GetFlagStatus                             obj/MPU6050_raw/stm32f30x_spi.o (symbol from plugin)
SPI_I2S_GetITStatus                               obj/MPU6050_raw/stm32f30x_spi.o (symbol from plugin)
SPI_I2S_ITConfig                                  obj/MPU6050_raw/stm32f30x_spi.o (symbol from plugin)
SPI_I2S_ReceiveData16                             obj/MPU6050_raw/stm32f30x_spi.o (symbol from plugin)
SPI_I2S_SendData16                                obj/MPU6050_raw/stm32f30x_spi.o (symbol from plugin)
SPI_Init                                          obj/MPU6050_raw/stm32f30x_spi.o (symbol from plugin)
SPI_LastDMATransferCmd                            obj/MPU6050_raw/stm32f30x_spi.o (symbol from plugin)
SPI_NSSInternalSoftwareConfig                     obj/MPU6050_raw/stm32f30x_spi.o (symbol from plugin)
SPI_NSSPulseModeCmd                               obj/MPU6050_raw/stm32f30x_spi.o (symbol from plugin)
SPI_ReceiveData8                                  obj/MPU6050_raw/stm32f30x_spi.o (symbol from plugin)
SPI_RxFIFOThresholdConfig                         obj/MPU6050_raw/stm32f30x_spi.o (symbol from plugin)
SPI_SSOutputCmd                                   obj/MPU6050_raw/stm32f30x_spi.o (symbol from plugin)
SPI_SendData8                                     obj/MPU6050_raw/stm32f30x_spi.o (symbol from plugin)
SPI_StructInit                                    obj/MPU6050_raw/stm32f30x_spi.o (symbol from plugin)
SPI_TIModeCmd                                     obj/MPU6050_raw/stm32f30x_spi.o (symbol from plugin)
SPI_TransmitCRC                                   obj/MPU6050_raw/stm32f30x_spi.o (symbol from plugin)
SVC_Handler                                       /tmp/ccm9M6LD.ltrans2.ltrans.o
                                                  obj/MPU6050_raw/vcp/stm32_it.o (symbol from plugin)
                                                  obj/MPU6050_raw/startup_stm32f30x_md_gcc.o
SYSCFG_BreakConfig                                obj/MPU6050_raw/stm32f30x_syscfg.o (symbol from plugin)
SYSCFG_BypassParityCheckDisable                   obj/MPU6050_raw/stm32f30x_syscfg.o (symbol from plugin)
SYSCFG_ClearFlag                                  obj/MPU6050_raw/stm32f30x_syscfg.o (symbol from plugin)
SYSCFG_DMAChannelRemapConfig                      obj/MPU6050_raw/stm32f30x_syscfg.o (symbol from plugin)
SYSCFG_DeInit                                     obj/MPU6050_raw/stm32f30x_syscfg.o (symbol from plugin)
SYSCFG_EXTILineConfig                             obj/MPU6050_raw/stm32f30x_syscfg.o (symbol from plugin)
                                                  obj/MPU6050_raw/exti.o (symbol from plugin)
SYSCFG_EncoderRemapConfig                         obj/MPU6050_raw/stm32f30x_syscfg.o (symbol from plugin)
SYSCFG_GetFlagStatus                              obj/MPU6050_raw/stm32f30x_syscfg.o (symbol from plugin)
SYSCFG_I2CFastModePlusConfig                      obj/MPU6050_raw/stm32f30x_syscfg.o (symbol from plugin)
SYSCFG_ITConfig                                   obj/MPU6050_raw/stm32f30x_syscfg.o (symbol from plugin)
SYSCFG_MemoryRemapConfig                          obj/MPU6050_raw/stm32f30x_syscfg.o (symbol from plugin)
SYSCFG_SRAMWRPEnable                              obj/MPU6050_raw/stm32f30x_syscfg.o (symbol from plugin)
SYSCFG_TriggerRemapConfig                         obj/MPU6050_raw/stm32f30x_syscfg.o (symbol from plugin)
SYSCFG_USBInterruptLineRemapCmd                   obj/MPU6050_raw/stm32f30x_syscfg.o (symbol from plugin)
SaveRState                                        /tmp/ccm9M6LD.ltrans2.ltrans.o
                                                  obj/MPU6050_raw/usb_int.o (symbol from plugin)
                                                  /tmp/ccm9M6LD.ltrans1.ltrans.o
                                                  obj/MPU6050_raw/usb_core.o (symbol from plugin)
SaveState                                         obj/MPU6050_raw/usb_init.o (symbol from plugin)
SaveTState                                        /tmp/ccm9M6LD.ltrans2.ltrans.o
                                                  obj/MPU6050_raw/usb_int.o (symbol from plugin)
                                                  /tmp/ccm9M6LD.ltrans1.ltrans.o
                                                  obj/MPU6050_raw/usb_core.o (symbol from plugin)
Serial                                            /tmp/ccm9M6LD.ltrans4.ltrans.o
                                                  obj/MPU6050_raw/Arduino.o (symbol from plugin)
                                                  /tmp/ccm9M6LD.ltrans0.ltrans.o
                                                  obj/MPU6050_raw.o (symbol from plugin)
Serial1                                           obj/MPU6050_raw/Arduino.o (symbol from plugin)
SetBTABLE                                         obj/MPU6050_raw/usb_regs.o (symbol from plugin)
                                                  obj/MPU6050_raw/vcp/usb_prop.o (symbol from plugin)
SetCNTR                                           obj/MPU6050_raw/usb_regs.o (symbol from plugin)
SetDADDR                                          obj/MPU6050_raw/usb_regs.o (symbol from plugin)
SetDeviceAddress                                  /tmp/ccm9M6LD.ltrans2.ltrans.o
                                                  obj/MPU6050_raw/usb_core.o (symbol from plugin)
                                                  /tmp/ccm9M6LD.ltrans3.ltrans.o
                                                  obj/MPU6050_raw/vcp/usb_prop.o (symbol from plugin)
SetDouBleBuffEPStall                              obj/MPU6050_raw/usb_regs.o (symbol from plugin)
SetENDPOINT                                       obj/MPU6050_raw/usb_regs.o (symbol from plugin)
SetEPAddress                                      obj/MPU6050_raw/usb_regs.o (symbol from plugin)
SetEPCountRxReg                                   obj/MPU6050_raw/usb_regs.o (symbol from plugin)
SetEPDblBuf0Addr                                  obj/MPU6050_raw/usb_regs.o (symbol from plugin)
SetEPDblBuf0Count                                 obj/MPU6050_raw/usb_regs.o (symbol from plugin)
SetEPDblBuf1Addr                                  obj/MPU6050_raw/usb_regs.o (symbol from plugin)
SetEPDblBuf1Count                                 obj/MPU6050_raw/usb_regs.o (symbol from plugin)
SetEPDblBuffAddr                                  obj/MPU6050_raw/usb_regs.o (symbol from plugin)
SetEPDblBuffCount                                 obj/MPU6050_raw/usb_regs.o (symbol from plugin)
SetEPDoubleBuff                                   obj/MPU6050_raw/usb_regs.o (symbol from plugin)
SetEPRxAddr                                       obj/MPU6050_raw/usb_regs.o (symbol from plugin)
                                                  obj/MPU6050_raw/vcp/usb_prop.o (symbol from plugin)
SetEPRxCount                                      /tmp/ccm9M6LD.ltrans2.ltrans.o
                                                  obj/MPU6050_raw/usb_regs.o (symbol from plugin)
                                                  /tmp/ccm9M6LD.ltrans3.ltrans.o
                                                  /tmp/ccm9M6LD.ltrans1.ltrans.o
                                                  obj/MPU6050_raw/vcp/usb_prop.o (symbol from plugin)
                                                  obj/MPU6050_raw/vcp/hw_config.o (symbol from plugin)
                                                  obj/MPU6050_raw/usb_core.o (symbol from plugin)
SetEPRxStatus                                     obj/MPU6050_raw/usb_regs.o (symbol from plugin)
                                                  obj/MPU6050_raw/vcp/usb_prop.o (symbol from plugin)
                                                  obj/MPU6050_raw/vcp/hw_config.o (symbol from plugin)
SetEPRxValid                                      obj/MPU6050_raw/usb_regs.o (symbol from plugin)
                                                  obj/MPU6050_raw/vcp/usb_prop.o (symbol from plugin)
SetEPTxAddr                                       obj/MPU6050_raw/usb_regs.o (symbol from plugin)
                                                  obj/MPU6050_raw/vcp/usb_prop.o (symbol from plugin)
SetEPTxCount                                      /tmp/ccm9M6LD.ltrans2.ltrans.o
                                                  obj/MPU6050_raw/usb_regs.o (symbol from plugin)
                                                  /tmp/ccm9M6LD.ltrans1.ltrans.o
                                                  obj/MPU6050_raw/vcp/hw_config.o (symbol from plugin)
                                                  obj/MPU6050_raw/usb_sil.o (symbol from plugin)
                                                  obj/MPU6050_raw/usb_core.o (symbol from plugin)
SetEPTxStatus                                     obj/MPU6050_raw/usb_regs.o (symbol from plugin)
                                                  obj/MPU6050_raw/vcp/usb_prop.o (symbol from plugin)
                                                  obj/MPU6050_raw/usb_core.o (symbol from plugin)
SetEPTxValid                                      obj/MPU6050_raw/usb_regs.o (symbol from plugin)
                                                  obj/MPU6050_raw/vcp/hw_config.o (symbol from plugin)
SetEPType                                         obj/MPU6050_raw/usb_regs.o (symbol from plugin)
                                                  obj/MPU6050_raw/vcp/usb_prop.o (symbol from plugin)
SetEP_KIND                                        obj/MPU6050_raw/usb_regs.o (symbol from plugin)
SetISTR                                           obj/MPU6050_raw/usb_regs.o (symbol from plugin)
SetSysClock                                       obj/MPU6050_raw/target/system_stm32f30x.o (symbol from plugin)
                                                  obj/MPU6050_raw/Arduino.o (symbol from plugin)
Set_Status_Out                                    obj/MPU6050_raw/usb_regs.o (symbol from plugin)
Set_System                                        obj/MPU6050_raw/vcp/hw_config.o (symbol from plugin)
                                                  obj/MPU6050_raw/serial_usb_vcp.o (symbol from plugin)
Set_USBClock                                      obj/MPU6050_raw/vcp/hw_config.o (symbol from plugin)
                                                  obj/MPU6050_raw/serial_usb_vcp.o (symbol from plugin)
Setup0_Process                                    obj/MPU6050_raw/usb_core.o (symbol from plugin)
                                                  obj/MPU6050_raw/usb_int.o (symbol from plugin)
Standard_ClearFeature                             /tmp/ccm9M6LD.ltrans1.ltrans.o
                                                  obj/MPU6050_raw/usb_core.o (symbol from plugin)
                                                  /tmp/ccm9M6LD.ltrans2.ltrans.o
Standard_GetConfiguration                         /tmp/ccm9M6LD.ltrans1.ltrans.o
                                                  obj/MPU6050_raw/usb_core.o (symbol from plugin)
                                                  /tmp/ccm9M6LD.ltrans2.ltrans.o
Standard_GetDescriptorData                        obj/MPU6050_raw/usb_core.o (symbol from plugin)
                                                  obj/MPU6050_raw/vcp/usb_prop.o (symbol from plugin)
Standard_GetInterface                             /tmp/ccm9M6LD.ltrans1.ltrans.o
                                                  obj/MPU6050_raw/usb_core.o (symbol from plugin)
                                                  /tmp/ccm9M6LD.ltrans2.ltrans.o
Standard_GetStatus                                /tmp/ccm9M6LD.ltrans1.ltrans.o
                                                  obj/MPU6050_raw/usb_core.o (symbol from plugin)
                                                  /tmp/ccm9M6LD.ltrans2.ltrans.o
Standard_SetConfiguration                         obj/MPU6050_raw/usb_core.o (symbol from plugin)
Standard_SetDeviceFeature                         obj/MPU6050_raw/usb_core.o (symbol from plugin)
Standard_SetEndPointFeature                       obj/MPU6050_raw/usb_core.o (symbol from plugin)
Standard_SetInterface                             obj/MPU6050_raw/usb_core.o (symbol from plugin)
StatusInfo                                        obj/MPU6050_raw/usb_core.o (symbol from plugin)
String_Descriptor                                 obj/MPU6050_raw/vcp/usb_prop.o (symbol from plugin)
Suspend                                           obj/MPU6050_raw/vcp/usb_pwr.o (symbol from plugin)
SysTick_CLKSourceConfig                           obj/MPU6050_raw/stm32f30x_misc.o (symbol from plugin)
SysTick_Handler                                   /tmp/ccm9M6LD.ltrans1.ltrans.o
                                                  obj/MPU6050_raw/system.o (symbol from plugin)
                                                  obj/MPU6050_raw/startup_stm32f30x_md_gcc.o
SystemCoreClock                                   obj/MPU6050_raw/target/system_stm32f30x.o (symbol from plugin)
                                                  obj/MPU6050_raw/system.o (symbol from plugin)
                                                  obj/MPU6050_raw/timer.o (symbol from plugin)
SystemCoreClockUpdate                             obj/MPU6050_raw/target/system_stm32f30x.o (symbol from plugin)
SystemInit                                        /tmp/ccm9M6LD.ltrans1.ltrans.o
                                                  obj/MPU6050_raw/target/system_stm32f30x.o (symbol from plugin)
                                                  /tmp/ccm9M6LD.ltrans3.ltrans.o
                                                  obj/MPU6050_raw/vcp/hw_config.o (symbol from plugin)
                                                  obj/MPU6050_raw/startup_stm32f30x_md_gcc.o
TAMPER_STAMP_IRQHandler                           obj/MPU6050_raw/startup_stm32f30x_md_gcc.o
TIM1_BRK_TIM15_IRQHandler                         /tmp/ccm9M6LD.ltrans1.ltrans.o
                                                  obj/MPU6050_raw/startup_stm32f30x_md_gcc.o
                                                  obj/MPU6050_raw/timer.o (symbol from plugin)
TIM1_CC_IRQHandler                                /tmp/ccm9M6LD.ltrans1.ltrans.o
                                                  obj/MPU6050_raw/startup_stm32f30x_md_gcc.o
                                                  obj/MPU6050_raw/timer.o (symbol from plugin)
TIM1_TRG_COM_TIM17_IRQHandler                     /tmp/ccm9M6LD.ltrans1.ltrans.o
                                                  obj/MPU6050_raw/startup_stm32f30x_md_gcc.o
                                                  obj/MPU6050_raw/timer.o (symbol from plugin)
TIM1_UP_TIM16_IRQHandler                          /tmp/ccm9M6LD.ltrans1.ltrans.o
                                                  obj/MPU6050_raw/startup_stm32f30x_md_gcc.o
                                                  obj/MPU6050_raw/timer.o (symbol from plugin)
TIM2_IRQHandler                                   /tmp/ccm9M6LD.ltrans1.ltrans.o
                                                  obj/MPU6050_raw/startup_stm32f30x_md_gcc.o
                                                  obj/MPU6050_raw/timer.o (symbol from plugin)
TIM3_IRQHandler                                   /tmp/ccm9M6LD.ltrans1.ltrans.o
                                                  obj/MPU6050_raw/startup_stm32f30x_md_gcc.o
                                                  obj/MPU6050_raw/timer.o (symbol from plugin)
TIM4_IRQHandler                                   obj/MPU6050_raw/startup_stm32f30x_md_gcc.o
TIM6_DAC_IRQHandler                               obj/MPU6050_raw/startup_stm32f30x_md_gcc.o
TIM7_IRQHandler                                   obj/MPU6050_raw/startup_stm32f30x_md_gcc.o
TIM8_BRK_IRQHandler                               obj/MPU6050_raw/startup_stm32f30x_md_gcc.o
TIM8_CC_IRQHandler                                obj/MPU6050_raw/startup_stm32f30x_md_gcc.o
TIM8_TRG_COM_IRQHandler                           obj/MPU6050_raw/startup_stm32f30x_md_gcc.o
TIM8_UP_IRQHandler                                obj/MPU6050_raw/startup_stm32f30x_md_gcc.o
TIM_ARRPreloadConfig                              obj/MPU6050_raw/stm32f30x_tim.o (symbol from plugin)
TIM_BDTRConfig                                    obj/MPU6050_raw/stm32f30x_tim.o (symbol from plugin)
TIM_BDTRStructInit                                obj/MPU6050_raw/stm32f30x_tim.o (symbol from plugin)
TIM_Break1Cmd                                     obj/MPU6050_raw/stm32f30x_tim.o (symbol from plugin)
TIM_Break1Config                                  obj/MPU6050_raw/stm32f30x_tim.o (symbol from plugin)
TIM_Break2Cmd                                     obj/MPU6050_raw/stm32f30x_tim.o (symbol from plugin)
TIM_Break2Config                                  obj/MPU6050_raw/stm32f30x_tim.o (symbol from plugin)
TIM_CCPreloadControl                              obj/MPU6050_raw/stm32f30x_tim.o (symbol from plugin)
TIM_CCxCmd                                        obj/MPU6050_raw/stm32f30x_tim.o (symbol from plugin)
TIM_CCxNCmd                                       obj/MPU6050_raw/stm32f30x_tim.o (symbol from plugin)
TIM_ClearFlag                                     obj/MPU6050_raw/stm32f30x_tim.o (symbol from plugin)
                                                  obj/MPU6050_raw/timer.o (symbol from plugin)
TIM_ClearITPendingBit                             obj/MPU6050_raw/stm32f30x_tim.o (symbol from plugin)
TIM_ClearOC1Ref                                   obj/MPU6050_raw/stm32f30x_tim.o (symbol from plugin)
TIM_ClearOC2Ref                                   obj/MPU6050_raw/stm32f30x_tim.o (symbol from plugin)
TIM_ClearOC3Ref                                   obj/MPU6050_raw/stm32f30x_tim.o (symbol from plugin)
TIM_ClearOC4Ref                                   obj/MPU6050_raw/stm32f30x_tim.o (symbol from plugin)
TIM_ClearOC5Ref                                   obj/MPU6050_raw/stm32f30x_tim.o (symbol from plugin)
TIM_ClearOC6Ref                                   obj/MPU6050_raw/stm32f30x_tim.o (symbol from plugin)
TIM_Cmd                                           obj/MPU6050_raw/stm32f30x_tim.o (symbol from plugin)
                                                  obj/MPU6050_raw/timer.o (symbol from plugin)
TIM_CounterModeConfig                             obj/MPU6050_raw/stm32f30x_tim.o (symbol from plugin)
TIM_CtrlPWMOutputs                                obj/MPU6050_raw/stm32f30x_tim.o (symbol from plugin)
TIM_DMACmd                                        obj/MPU6050_raw/stm32f30x_tim.o (symbol from plugin)
TIM_DMAConfig                                     obj/MPU6050_raw/stm32f30x_tim.o (symbol from plugin)
TIM_DeInit                                        obj/MPU6050_raw/stm32f30x_tim.o (symbol from plugin)
TIM_ETRClockMode1Config                           obj/MPU6050_raw/stm32f30x_tim.o (symbol from plugin)
TIM_ETRClockMode2Config                           obj/MPU6050_raw/stm32f30x_tim.o (symbol from plugin)
TIM_ETRConfig                                     obj/MPU6050_raw/stm32f30x_tim.o (symbol from plugin)
TIM_EncoderInterfaceConfig                        obj/MPU6050_raw/stm32f30x_tim.o (symbol from plugin)
TIM_ForcedOC1Config                               obj/MPU6050_raw/stm32f30x_tim.o (symbol from plugin)
TIM_ForcedOC2Config                               obj/MPU6050_raw/stm32f30x_tim.o (symbol from plugin)
TIM_ForcedOC3Config                               obj/MPU6050_raw/stm32f30x_tim.o (symbol from plugin)
TIM_ForcedOC4Config                               obj/MPU6050_raw/stm32f30x_tim.o (symbol from plugin)
TIM_ForcedOC5Config                               obj/MPU6050_raw/stm32f30x_tim.o (symbol from plugin)
TIM_ForcedOC6Config                               obj/MPU6050_raw/stm32f30x_tim.o (symbol from plugin)
TIM_GenerateEvent                                 obj/MPU6050_raw/stm32f30x_tim.o (symbol from plugin)
TIM_GetCapture1                                   obj/MPU6050_raw/stm32f30x_tim.o (symbol from plugin)
TIM_GetCapture2                                   obj/MPU6050_raw/stm32f30x_tim.o (symbol from plugin)
TIM_GetCapture3                                   obj/MPU6050_raw/stm32f30x_tim.o (symbol from plugin)
TIM_GetCapture4                                   obj/MPU6050_raw/stm32f30x_tim.o (symbol from plugin)
TIM_GetCounter                                    obj/MPU6050_raw/stm32f30x_tim.o (symbol from plugin)
TIM_GetFlagStatus                                 obj/MPU6050_raw/stm32f30x_tim.o (symbol from plugin)
TIM_GetITStatus                                   obj/MPU6050_raw/stm32f30x_tim.o (symbol from plugin)
TIM_GetPrescaler                                  obj/MPU6050_raw/stm32f30x_tim.o (symbol from plugin)
TIM_ICInit                                        obj/MPU6050_raw/stm32f30x_tim.o (symbol from plugin)
                                                  obj/MPU6050_raw/timer.o (symbol from plugin)
TIM_ICStructInit                                  obj/MPU6050_raw/stm32f30x_tim.o (symbol from plugin)
                                                  obj/MPU6050_raw/timer.o (symbol from plugin)
TIM_ITConfig                                      obj/MPU6050_raw/stm32f30x_tim.o (symbol from plugin)
                                                  obj/MPU6050_raw/timer.o (symbol from plugin)
TIM_ITRxExternalClockConfig                       obj/MPU6050_raw/stm32f30x_tim.o (symbol from plugin)
TIM_InternalClockConfig                           obj/MPU6050_raw/stm32f30x_tim.o (symbol from plugin)
TIM_OC1FastConfig                                 obj/MPU6050_raw/stm32f30x_tim.o (symbol from plugin)
TIM_OC1Init                                       obj/MPU6050_raw/stm32f30x_tim.o (symbol from plugin)
                                                  obj/MPU6050_raw/timer.o (symbol from plugin)
TIM_OC1NPolarityConfig                            obj/MPU6050_raw/stm32f30x_tim.o (symbol from plugin)
TIM_OC1PolarityConfig                             obj/MPU6050_raw/stm32f30x_tim.o (symbol from plugin)
TIM_OC1PreloadConfig                              obj/MPU6050_raw/stm32f30x_tim.o (symbol from plugin)
                                                  obj/MPU6050_raw/timer.o (symbol from plugin)
TIM_OC2FastConfig                                 obj/MPU6050_raw/stm32f30x_tim.o (symbol from plugin)
TIM_OC2Init                                       obj/MPU6050_raw/stm32f30x_tim.o (symbol from plugin)
                                                  obj/MPU6050_raw/timer.o (symbol from plugin)
TIM_OC2NPolarityConfig                            obj/MPU6050_raw/stm32f30x_tim.o (symbol from plugin)
TIM_OC2PolarityConfig                             obj/MPU6050_raw/stm32f30x_tim.o (symbol from plugin)
TIM_OC2PreloadConfig                              obj/MPU6050_raw/stm32f30x_tim.o (symbol from plugin)
                                                  obj/MPU6050_raw/timer.o (symbol from plugin)
TIM_OC3FastConfig                                 obj/MPU6050_raw/stm32f30x_tim.o (symbol from plugin)
TIM_OC3Init                                       obj/MPU6050_raw/stm32f30x_tim.o (symbol from plugin)
                                                  obj/MPU6050_raw/timer.o (symbol from plugin)
TIM_OC3NPolarityConfig                            obj/MPU6050_raw/stm32f30x_tim.o (symbol from plugin)
TIM_OC3PolarityConfig                             obj/MPU6050_raw/stm32f30x_tim.o (symbol from plugin)
TIM_OC3PreloadConfig                              obj/MPU6050_raw/stm32f30x_tim.o (symbol from plugin)
                                                  obj/MPU6050_raw/timer.o (symbol from plugin)
TIM_OC4FastConfig                                 obj/MPU6050_raw/stm32f30x_tim.o (symbol from plugin)
TIM_OC4Init                                       obj/MPU6050_raw/stm32f30x_tim.o (symbol from plugin)
                                                  obj/MPU6050_raw/timer.o (symbol from plugin)
TIM_OC4PolarityConfig                             obj/MPU6050_raw/stm32f30x_tim.o (symbol from plugin)
TIM_OC4PreloadConfig                              obj/MPU6050_raw/stm32f30x_tim.o (symbol from plugin)
                                                  obj/MPU6050_raw/timer.o (symbol from plugin)
TIM_OC5Init                                       obj/MPU6050_raw/stm32f30x_tim.o (symbol from plugin)
TIM_OC5PolarityConfig                             obj/MPU6050_raw/stm32f30x_tim.o (symbol from plugin)
TIM_OC5PreloadConfig                              obj/MPU6050_raw/stm32f30x_tim.o (symbol from plugin)
TIM_OC6Init                                       obj/MPU6050_raw/stm32f30x_tim.o (symbol from plugin)
TIM_OC6PolarityConfig                             obj/MPU6050_raw/stm32f30x_tim.o (symbol from plugin)
TIM_OC6PreloadConfig                              obj/MPU6050_raw/stm32f30x_tim.o (symbol from plugin)
TIM_OCStructInit                                  obj/MPU6050_raw/stm32f30x_tim.o (symbol from plugin)
                                                  obj/MPU6050_raw/timer.o (symbol from plugin)
TIM_PWMIConfig                                    obj/MPU6050_raw/stm32f30x_tim.o (symbol from plugin)
TIM_PrescalerConfig                               obj/MPU6050_raw/stm32f30x_tim.o (symbol from plugin)
TIM_RemapConfig                                   obj/MPU6050_raw/stm32f30x_tim.o (symbol from plugin)
TIM_SelectCCDMA                                   obj/MPU6050_raw/stm32f30x_tim.o (symbol from plugin)
TIM_SelectCOM                                     obj/MPU6050_raw/stm32f30x_tim.o (symbol from plugin)
TIM_SelectGC5C1                                   obj/MPU6050_raw/stm32f30x_tim.o (symbol from plugin)
TIM_SelectGC5C2                                   obj/MPU6050_raw/stm32f30x_tim.o (symbol from plugin)
TIM_SelectGC5C3                                   obj/MPU6050_raw/stm32f30x_tim.o (symbol from plugin)
TIM_SelectHallSensor                              obj/MPU6050_raw/stm32f30x_tim.o (symbol from plugin)
TIM_SelectInputTrigger                            obj/MPU6050_raw/stm32f30x_tim.o (symbol from plugin)
TIM_SelectMasterSlaveMode                         obj/MPU6050_raw/stm32f30x_tim.o (symbol from plugin)
TIM_SelectOCREFClear                              obj/MPU6050_raw/stm32f30x_tim.o (symbol from plugin)
TIM_SelectOCxM                                    obj/MPU6050_raw/stm32f30x_tim.o (symbol from plugin)
TIM_SelectOCxM_NoDisable                          obj/MPU6050_raw/timer_stm32f30x.o (symbol from plugin)
TIM_SelectOnePulseMode                            obj/MPU6050_raw/stm32f30x_tim.o (symbol from plugin)
TIM_SelectOutputTrigger                           obj/MPU6050_raw/stm32f30x_tim.o (symbol from plugin)
TIM_SelectOutputTrigger2                          obj/MPU6050_raw/stm32f30x_tim.o (symbol from plugin)
TIM_SelectSlaveMode                               obj/MPU6050_raw/stm32f30x_tim.o (symbol from plugin)
TIM_SetAutoreload                                 obj/MPU6050_raw/stm32f30x_tim.o (symbol from plugin)
TIM_SetClockDivision                              obj/MPU6050_raw/stm32f30x_tim.o (symbol from plugin)
TIM_SetCompare1                                   obj/MPU6050_raw/stm32f30x_tim.o (symbol from plugin)
TIM_SetCompare2                                   obj/MPU6050_raw/stm32f30x_tim.o (symbol from plugin)
TIM_SetCompare3                                   obj/MPU6050_raw/stm32f30x_tim.o (symbol from plugin)
TIM_SetCompare4                                   obj/MPU6050_raw/stm32f30x_tim.o (symbol from plugin)
TIM_SetCompare5                                   obj/MPU6050_raw/stm32f30x_tim.o (symbol from plugin)
TIM_SetCompare6                                   obj/MPU6050_raw/stm32f30x_tim.o (symbol from plugin)
TIM_SetCounter                                    obj/MPU6050_raw/stm32f30x_tim.o (symbol from plugin)
TIM_SetIC1Prescaler                               obj/MPU6050_raw/stm32f30x_tim.o (symbol from plugin)
TIM_SetIC2Prescaler                               obj/MPU6050_raw/stm32f30x_tim.o (symbol from plugin)
TIM_SetIC3Prescaler                               obj/MPU6050_raw/stm32f30x_tim.o (symbol from plugin)
TIM_SetIC4Prescaler                               obj/MPU6050_raw/stm32f30x_tim.o (symbol from plugin)
TIM_TIxExternalClockConfig                        obj/MPU6050_raw/stm32f30x_tim.o (symbol from plugin)
TIM_TimeBaseInit                                  obj/MPU6050_raw/stm32f30x_tim.o (symbol from plugin)
                                                  obj/MPU6050_raw/timer.o (symbol from plugin)
TIM_TimeBaseStructInit                            obj/MPU6050_raw/stm32f30x_tim.o (symbol from plugin)
                                                  obj/MPU6050_raw/timer.o (symbol from plugin)
TIM_UIFRemap                                      obj/MPU6050_raw/stm32f30x_tim.o (symbol from plugin)
TIM_UpdateDisableConfig                           obj/MPU6050_raw/stm32f30x_tim.o (symbol from plugin)
TIM_UpdateRequestConfig                           obj/MPU6050_raw/stm32f30x_tim.o (symbol from plugin)
ToWord                                            obj/MPU6050_raw/usb_regs.o (symbol from plugin)
ToggleDTOG_RX                                     obj/MPU6050_raw/usb_regs.o (symbol from plugin)
ToggleDTOG_TX                                     obj/MPU6050_raw/usb_regs.o (symbol from plugin)
UART4_IRQHandler                                  obj/MPU6050_raw/startup_stm32f30x_md_gcc.o
UART5_IRQHandler                                  obj/MPU6050_raw/startup_stm32f30x_md_gcc.o
USART1_IRQHandler                                 /tmp/ccm9M6LD.ltrans1.ltrans.o
                                                  obj/MPU6050_raw/serial_uart_stm32f30x.o (symbol from plugin)
                                                  obj/MPU6050_raw/startup_stm32f30x_md_gcc.o
USART2_IRQHandler                                 /tmp/ccm9M6LD.ltrans1.ltrans.o
                                                  obj/MPU6050_raw/serial_uart_stm32f30x.o (symbol from plugin)
                                                  obj/MPU6050_raw/startup_stm32f30x_md_gcc.o
USART3_IRQHandler                                 /tmp/ccm9M6LD.ltrans1.ltrans.o
                                                  obj/MPU6050_raw/serial_uart_stm32f30x.o (symbol from plugin)
                                                  obj/MPU6050_raw/startup_stm32f30x_md_gcc.o
USART_AddressDetectionConfig                      obj/MPU6050_raw/stm32f30x_usart.o (symbol from plugin)
USART_AutoBaudRateCmd                             obj/MPU6050_raw/stm32f30x_usart.o (symbol from plugin)
USART_AutoBaudRateConfig                          obj/MPU6050_raw/stm32f30x_usart.o (symbol from plugin)
USART_ClearFlag                                   obj/MPU6050_raw/stm32f30x_usart.o (symbol from plugin)
USART_ClearITPendingBit                           obj/MPU6050_raw/stm32f30x_usart.o (symbol from plugin)
                                                  obj/MPU6050_raw/serial_uart_stm32f30x.o (symbol from plugin)
                                                  obj/MPU6050_raw/serial_uart.o (symbol from plugin)
USART_ClockInit                                   obj/MPU6050_raw/stm32f30x_usart.o (symbol from plugin)
USART_ClockStructInit                             obj/MPU6050_raw/stm32f30x_usart.o (symbol from plugin)
USART_Cmd                                         obj/MPU6050_raw/stm32f30x_usart.o (symbol from plugin)
                                                  obj/MPU6050_raw/serial_uart.o (symbol from plugin)
USART_DECmd                                       obj/MPU6050_raw/stm32f30x_usart.o (symbol from plugin)
USART_DEPolarityConfig                            obj/MPU6050_raw/stm32f30x_usart.o (symbol from plugin)
USART_DMACmd                                      obj/MPU6050_raw/stm32f30x_usart.o (symbol from plugin)
                                                  obj/MPU6050_raw/serial_uart.o (symbol from plugin)
USART_DMAReceptionErrorConfig                     obj/MPU6050_raw/stm32f30x_usart.o (symbol from plugin)
USART_DataInvCmd                                  obj/MPU6050_raw/stm32f30x_usart.o (symbol from plugin)
USART_DeInit                                      obj/MPU6050_raw/stm32f30x_usart.o (symbol from plugin)
USART_DirectionModeCmd                            obj/MPU6050_raw/stm32f30x_usart.o (symbol from plugin)
USART_GetFlagStatus                               obj/MPU6050_raw/stm32f30x_usart.o (symbol from plugin)
USART_GetITStatus                                 obj/MPU6050_raw/stm32f30x_usart.o (symbol from plugin)
USART_HalfDuplexCmd                               obj/MPU6050_raw/stm32f30x_usart.o (symbol from plugin)
                                                  obj/MPU6050_raw/serial_uart.o (symbol from plugin)
USART_ITConfig                                    obj/MPU6050_raw/stm32f30x_usart.o (symbol from plugin)
                                                  obj/MPU6050_raw/serial_uart_stm32f30x.o (symbol from plugin)
                                                  obj/MPU6050_raw/serial_uart.o (symbol from plugin)
USART_Init                                        obj/MPU6050_raw/stm32f30x_usart.o (symbol from plugin)
                                                  obj/MPU6050_raw/serial_uart.o (symbol from plugin)
USART_InvPinCmd                                   obj/MPU6050_raw/stm32f30x_usart.o (symbol from plugin)
                                                  obj/MPU6050_raw/serial_uart.o (symbol from plugin)
USART_IrDACmd                                     obj/MPU6050_raw/stm32f30x_usart.o (symbol from plugin)
USART_IrDAConfig                                  obj/MPU6050_raw/stm32f30x_usart.o (symbol from plugin)
USART_LINBreakDetectLengthConfig                  obj/MPU6050_raw/stm32f30x_usart.o (symbol from plugin)
USART_LINCmd                                      obj/MPU6050_raw/stm32f30x_usart.o (symbol from plugin)
USART_MSBFirstCmd                                 obj/MPU6050_raw/stm32f30x_usart.o (symbol from plugin)
USART_MuteModeCmd                                 obj/MPU6050_raw/stm32f30x_usart.o (symbol from plugin)
USART_MuteModeWakeUpConfig                        obj/MPU6050_raw/stm32f30x_usart.o (symbol from plugin)
USART_OneBitMethodCmd                             obj/MPU6050_raw/stm32f30x_usart.o (symbol from plugin)
USART_OverSampling8Cmd                            obj/MPU6050_raw/stm32f30x_usart.o (symbol from plugin)
USART_OverrunDetectionConfig                      obj/MPU6050_raw/stm32f30x_usart.o (symbol from plugin)
USART_ReceiveData                                 obj/MPU6050_raw/stm32f30x_usart.o (symbol from plugin)
USART_ReceiverTimeOutCmd                          obj/MPU6050_raw/stm32f30x_usart.o (symbol from plugin)
USART_RequestCmd                                  obj/MPU6050_raw/stm32f30x_usart.o (symbol from plugin)
USART_STOPModeCmd                                 obj/MPU6050_raw/stm32f30x_usart.o (symbol from plugin)
USART_SWAPPinCmd                                  obj/MPU6050_raw/stm32f30x_usart.o (symbol from plugin)
USART_SendData                                    obj/MPU6050_raw/stm32f30x_usart.o (symbol from plugin)
                                                  obj/MPU6050_raw/serial_uart_stm32f30x.o (symbol from plugin)
USART_SetAddress                                  obj/MPU6050_raw/stm32f30x_usart.o (symbol from plugin)
USART_SetAutoRetryCount                           obj/MPU6050_raw/stm32f30x_usart.o (symbol from plugin)
USART_SetBlockLength                              obj/MPU6050_raw/stm32f30x_usart.o (symbol from plugin)
USART_SetDEAssertionTime                          obj/MPU6050_raw/stm32f30x_usart.o (symbol from plugin)
USART_SetDEDeassertionTime                        obj/MPU6050_raw/stm32f30x_usart.o (symbol from plugin)
USART_SetGuardTime                                obj/MPU6050_raw/stm32f30x_usart.o (symbol from plugin)
USART_SetPrescaler                                obj/MPU6050_raw/stm32f30x_usart.o (symbol from plugin)
USART_SetReceiverTimeOut                          obj/MPU6050_raw/stm32f30x_usart.o (symbol from plugin)
USART_SmartCardCmd                                obj/MPU6050_raw/stm32f30x_usart.o (symbol from plugin)
USART_SmartCardNACKCmd                            obj/MPU6050_raw/stm32f30x_usart.o (symbol from plugin)
USART_StopModeWakeUpSourceConfig                  obj/MPU6050_raw/stm32f30x_usart.o (symbol from plugin)
USART_StructInit                                  obj/MPU6050_raw/stm32f30x_usart.o (symbol from plugin)
USBWakeUp_IRQHandler                              /tmp/ccm9M6LD.ltrans3.ltrans.o
                                                  obj/MPU6050_raw/vcp/stm32_it.o (symbol from plugin)
                                                  obj/MPU6050_raw/startup_stm32f30x_md_gcc.o
USBWakeUp_RMP_IRQHandler                          obj/MPU6050_raw/startup_stm32f30x_md_gcc.o
USB_Cable_Config                                  obj/MPU6050_raw/vcp/hw_config.o (symbol from plugin)
                                                  obj/MPU6050_raw/vcp/usb_pwr.o (symbol from plugin)
USB_HP_CAN1_TX_IRQHandler                         obj/MPU6050_raw/startup_stm32f30x_md_gcc.o
USB_HP_IRQHandler                                 obj/MPU6050_raw/startup_stm32f30x_md_gcc.o
USB_Init                                          obj/MPU6050_raw/usb_init.o (symbol from plugin)
                                                  obj/MPU6050_raw/serial_usb_vcp.o (symbol from plugin)
USB_Interrupts_Config                             obj/MPU6050_raw/vcp/hw_config.o (symbol from plugin)
                                                  obj/MPU6050_raw/serial_usb_vcp.o (symbol from plugin)
USB_Istr                                          obj/MPU6050_raw/vcp/usb_istr.o (symbol from plugin)
                                                  obj/MPU6050_raw/vcp/stm32_it.o (symbol from plugin)
USB_LP_CAN1_RX0_IRQHandler                        /tmp/ccm9M6LD.ltrans2.ltrans.o
                                                  obj/MPU6050_raw/vcp/stm32_it.o (symbol from plugin)
                                                  obj/MPU6050_raw/startup_stm32f30x_md_gcc.o
USB_LP_IRQHandler                                 obj/MPU6050_raw/startup_stm32f30x_md_gcc.o
USB_SIL_Init                                      obj/MPU6050_raw/usb_sil.o (symbol from plugin)
                                                  obj/MPU6050_raw/vcp/usb_prop.o (symbol from plugin)
USB_SIL_Read                                      obj/MPU6050_raw/usb_sil.o (symbol from plugin)
USB_SIL_Write                                     obj/MPU6050_raw/usb_sil.o (symbol from plugin)
UsageFault_Handler                                /tmp/ccm9M6LD.ltrans2.ltrans.o
                                                  obj/MPU6050_raw/vcp/stm32_it.o (symbol from plugin)
                                                  obj/MPU6050_raw/startup_stm32f30x_md_gcc.o
UserToPMABufferCopy                               obj/MPU6050_raw/usb_mem.o (symbol from plugin)
                                                  obj/MPU6050_raw/vcp/hw_config.o (symbol from plugin)
                                                  obj/MPU6050_raw/usb_sil.o (symbol from plugin)
                                                  obj/MPU6050_raw/usb_core.o (symbol from plugin)
User_Standard_Requests                            obj/MPU6050_raw/vcp/usb_prop.o (symbol from plugin)
                                                  obj/MPU6050_raw/usb_init.o (symbol from plugin)
Virtual_Com_Port_ConfigDescriptor                 obj/MPU6050_raw/vcp/usb_desc.o (symbol from plugin)
                                                  obj/MPU6050_raw/vcp/usb_prop.o (symbol from plugin)
Virtual_Com_Port_Data_Setup                       /tmp/ccm9M6LD.ltrans3.ltrans.o
                                                  obj/MPU6050_raw/vcp/usb_prop.o (symbol from plugin)
                                                  /tmp/ccm9M6LD.ltrans0.ltrans.o
Virtual_Com_Port_DeviceDescriptor                 obj/MPU6050_raw/vcp/usb_desc.o (symbol from plugin)
                                                  obj/MPU6050_raw/vcp/usb_prop.o (symbol from plugin)
Virtual_Com_Port_GetBaudRate                      obj/MPU6050_raw/vcp/usb_prop.o (symbol from plugin)
                                                  obj/MPU6050_raw/vcp/hw_config.o (symbol from plugin)
Virtual_Com_Port_GetConfigDescriptor              /tmp/ccm9M6LD.ltrans3.ltrans.o
                                                  obj/MPU6050_raw/vcp/usb_prop.o (symbol from plugin)
                                                  /tmp/ccm9M6LD.ltrans0.ltrans.o
Virtual_Com_Port_GetDeviceDescriptor              /tmp/ccm9M6LD.ltrans3.ltrans.o
                                                  obj/MPU6050_raw/vcp/usb_prop.o (symbol from plugin)
                                                  /tmp/ccm9M6LD.ltrans0.ltrans.o
Virtual_Com_Port_GetLineCoding                    obj/MPU6050_raw/vcp/usb_prop.o (symbol from plugin)
Virtual_Com_Port_GetStringDescriptor              /tmp/ccm9M6LD.ltrans3.ltrans.o
                                                  obj/MPU6050_raw/vcp/usb_prop.o (symbol from plugin)
                                                  /tmp/ccm9M6LD.ltrans0.ltrans.o
Virtual_Com_Port_Get_Interface_Setting            /tmp/ccm9M6LD.ltrans3.ltrans.o
                                                  obj/MPU6050_raw/vcp/usb_prop.o (symbol from plugin)
                                                  /tmp/ccm9M6LD.ltrans0.ltrans.o
Virtual_Com_Port_NoData_Setup                     /tmp/ccm9M6LD.ltrans3.ltrans.o
                                                  obj/MPU6050_raw/vcp/usb_prop.o (symbol from plugin)
                                                  /tmp/ccm9M6LD.ltrans0.ltrans.o
Virtual_Com_Port_Reset                            /tmp/ccm9M6LD.ltrans3.ltrans.o
                                                  obj/MPU6050_raw/vcp/usb_prop.o (symbol from plugin)
                                                  /tmp/ccm9M6LD.ltrans0.ltrans.o
Virtual_Com_Port_SetConfiguration                 /tmp/ccm9M6LD.ltrans3.ltrans.o
                                                  obj/MPU6050_raw/vcp/usb_prop.o (symbol from plugin)
                                                  /tmp/ccm9M6LD.ltrans0.ltrans.o
Virtual_Com_Port_SetDeviceAddress                 /tmp/ccm9M6LD.ltrans3.ltrans.o
                                                  obj/MPU6050_raw/vcp/usb_prop.o (symbol from plugin)
                                                  /tmp/ccm9M6LD.ltrans0.ltrans.o
Virtual_Com_Port_SetLineCoding                    obj/MPU6050_raw/vcp/usb_prop.o (symbol from plugin)
Virtual_Com_Port_Status_In                        /tmp/ccm9M6LD.ltrans3.ltrans.o
                                                  obj/MPU6050_raw/vcp/usb_prop.o (symbol from plugin)
                                                  /tmp/ccm9M6LD.ltrans0.ltrans.o
Virtual_Com_Port_Status_Out                       /tmp/ccm9M6LD.ltrans3.ltrans.o
                                                  obj/MPU6050_raw/vcp/usb_prop.o (symbol from plugin)
                                                  /tmp/ccm9M6LD.ltrans0.ltrans.o
Virtual_Com_Port_StringLangID                     obj/MPU6050_raw/vcp/usb_desc.o (symbol from plugin)
                                                  obj/MPU6050_raw/vcp/usb_prop.o (symbol from plugin)
Virtual_Com_Port_StringProduct                    obj/MPU6050_raw/vcp/usb_desc.o (symbol from plugin)
                                                  obj/MPU6050_raw/vcp/usb_prop.o (symbol from plugin)
Virtual_Com_Port_StringSerial                     obj/MPU6050_raw/vcp/usb_desc.o (symbol from plugin)
                                                  obj/MPU6050_raw/vcp/usb_prop.o (symbol from plugin)
                                                  obj/MPU6050_raw/vcp/hw_config.o (symbol from plugin)
Virtual_Com_Port_StringVendor                     obj/MPU6050_raw/vcp/usb_desc.o (symbol from plugin)
                                                  obj/MPU6050_raw/vcp/usb_prop.o (symbol from plugin)
Virtual_Com_Port_init                             /tmp/ccm9M6LD.ltrans3.ltrans.o
                                                  obj/MPU6050_raw/vcp/usb_prop.o (symbol from plugin)
                                                  /tmp/ccm9M6LD.ltrans0.ltrans.o
WWDG_ClearFlag                                    obj/MPU6050_raw/stm32f30x_wwdg.o (symbol from plugin)
WWDG_DeInit                                       obj/MPU6050_raw/stm32f30x_wwdg.o (symbol from plugin)
WWDG_Enable                                       obj/MPU6050_raw/stm32f30x_wwdg.o (symbol from plugin)
WWDG_EnableIT                                     obj/MPU6050_raw/stm32f30x_wwdg.o (symbol from plugin)
WWDG_GetFlagStatus                                obj/MPU6050_raw/stm32f30x_wwdg.o (symbol from plugin)
WWDG_IRQHandler                                   obj/MPU6050_raw/startup_stm32f30x_md_gcc.o
WWDG_SetCounter                                   obj/MPU6050_raw/stm32f30x_wwdg.o (symbol from plugin)
WWDG_SetPrescaler                                 obj/MPU6050_raw/stm32f30x_wwdg.o (symbol from plugin)
WWDG_SetWindowValue                               obj/MPU6050_raw/stm32f30x_wwdg.o (symbol from plugin)
Wire                                              /tmp/ccm9M6LD.ltrans4.ltrans.o
                                                  obj/MPU6050_raw/HardwareWire.o (symbol from plugin)
                                                  obj/MPU6050_raw.o (symbol from plugin)
                                                  obj/MPU6050_raw/MPU6050.o (symbol from plugin)
_Unwind_Backtrace                                 /usr/local/gcc-arm-none-eabi-5_4-2016q3/bin/../lib/gcc/arm-none-eabi/5.4.1/armv7e-m/fpu/libgcc.a(libunwind.o)
_Unwind_Complete                                  /usr/local/gcc-arm-none-eabi-5_4-2016q3/bin/../lib/gcc/arm-none-eabi/5.4.1/armv7e-m/fpu/libgcc.a(unwind-arm.o)
_Unwind_DeleteException                           /usr/local/gcc-arm-none-eabi-5_4-2016q3/bin/../lib/gcc/arm-none-eabi/5.4.1/armv7e-m/fpu/libgcc.a(unwind-arm.o)
_Unwind_ForcedUnwind                              /usr/local/gcc-arm-none-eabi-5_4-2016q3/bin/../lib/gcc/arm-none-eabi/5.4.1/armv7e-m/fpu/libgcc.a(libunwind.o)
_Unwind_GetCFA                                    /usr/local/gcc-arm-none-eabi-5_4-2016q3/bin/../lib/gcc/arm-none-eabi/5.4.1/armv7e-m/fpu/libgcc.a(unwind-arm.o)
_Unwind_GetDataRelBase                            /usr/local/gcc-arm-none-eabi-5_4-2016q3/bin/../lib/gcc/arm-none-eabi/5.4.1/armv7e-m/fpu/libgcc.a(pr-support.o)
_Unwind_GetLanguageSpecificData                   /usr/local/gcc-arm-none-eabi-5_4-2016q3/bin/../lib/gcc/arm-none-eabi/5.4.1/armv7e-m/fpu/libgcc.a(pr-support.o)
_Unwind_GetRegionStart                            /usr/local/gcc-arm-none-eabi-5_4-2016q3/bin/../lib/gcc/arm-none-eabi/5.4.1/armv7e-m/fpu/libgcc.a(pr-support.o)
_Unwind_GetTextRelBase                            /usr/local/gcc-arm-none-eabi-5_4-2016q3/bin/../lib/gcc/arm-none-eabi/5.4.1/armv7e-m/fpu/libgcc.a(pr-support.o)
_Unwind_RaiseException                            /usr/local/gcc-arm-none-eabi-5_4-2016q3/bin/../lib/gcc/arm-none-eabi/5.4.1/armv7e-m/fpu/libgcc.a(libunwind.o)
_Unwind_Resume                                    /usr/local/gcc-arm-none-eabi-5_4-2016q3/bin/../lib/gcc/arm-none-eabi/5.4.1/armv7e-m/fpu/libgcc.a(libunwind.o)
_Unwind_Resume_or_Rethrow                         /usr/local/gcc-arm-none-eabi-5_4-2016q3/bin/../lib/gcc/arm-none-eabi/5.4.1/armv7e-m/fpu/libgcc.a(libunwind.o)
_Unwind_VRS_Get                                   /usr/local/gcc-arm-none-eabi-5_4-2016q3/bin/../lib/gcc/arm-none-eabi/5.4.1/armv7e-m/fpu/libgcc.a(unwind-arm.o)
                                                  /usr/local/gcc-arm-none-eabi-5_4-2016q3/bin/../lib/gcc/arm-none-eabi/5.4.1/armv7e-m/fpu/libgcc.a(pr-support.o)
_Unwind_VRS_Pop                                   /usr/local/gcc-arm-none-eabi-5_4-2016q3/bin/../lib/gcc/arm-none-eabi/5.4.1/armv7e-m/fpu/libgcc.a(unwind-arm.o)
                                                  /usr/local/gcc-arm-none-eabi-5_4-2016q3/bin/../lib/gcc/arm-none-eabi/5.4.1/armv7e-m/fpu/libgcc.a(pr-support.o)
_Unwind_VRS_Set                                   /usr/local/gcc-arm-none-eabi-5_4-2016q3/bin/../lib/gcc/arm-none-eabi/5.4.1/armv7e-m/fpu/libgcc.a(unwind-arm.o)
                                                  /usr/local/gcc-arm-none-eabi-5_4-2016q3/bin/../lib/gcc/arm-none-eabi/5.4.1/armv7e-m/fpu/libgcc.a(pr-support.o)
_ZL4I2Cx.lto_priv.43                              /tmp/ccm9M6LD.ltrans4.ltrans.o
                                                  /tmp/ccm9M6LD.ltrans0.ltrans.o
___Unwind_Backtrace                               /usr/local/gcc-arm-none-eabi-5_4-2016q3/bin/../lib/gcc/arm-none-eabi/5.4.1/armv7e-m/fpu/libgcc.a(libunwind.o)
___Unwind_ForcedUnwind                            /usr/local/gcc-arm-none-eabi-5_4-2016q3/bin/../lib/gcc/arm-none-eabi/5.4.1/armv7e-m/fpu/libgcc.a(libunwind.o)
___Unwind_RaiseException                          /usr/local/gcc-arm-none-eabi-5_4-2016q3/bin/../lib/gcc/arm-none-eabi/5.4.1/armv7e-m/fpu/libgcc.a(libunwind.o)
___Unwind_Resume                                  /usr/local/gcc-arm-none-eabi-5_4-2016q3/bin/../lib/gcc/arm-none-eabi/5.4.1/armv7e-m/fpu/libgcc.a(libunwind.o)
___Unwind_Resume_or_Rethrow                       /usr/local/gcc-arm-none-eabi-5_4-2016q3/bin/../lib/gcc/arm-none-eabi/5.4.1/armv7e-m/fpu/libgcc.a(libunwind.o)
__aeabi_unwind_cpp_pr0                            /usr/local/gcc-arm-none-eabi-5_4-2016q3/bin/../lib/gcc/arm-none-eabi/5.4.1/armv7e-m/fpu/libgcc.a(unwind-arm.o)
                                                  /usr/local/gcc-arm-none-eabi-5_4-2016q3/bin/../lib/gcc/arm-none-eabi/5.4.1/armv7e-m/fpu/libgcc.a(pr-support.o)
                                                  /tmp/ccm9M6LD.ltrans0.ltrans.o
__aeabi_unwind_cpp_pr1                            /usr/local/gcc-arm-none-eabi-5_4-2016q3/bin/../lib/gcc/arm-none-eabi/5.4.1/armv7e-m/fpu/libgcc.a(unwind-arm.o)
                                                  /usr/local/gcc-arm-none-eabi-5_4-2016q3/bin/../lib/gcc/arm-none-eabi/5.4.1/armv7e-m/fpu/libgcc.a(pr-support.o)
__aeabi_unwind_cpp_pr2                            /usr/local/gcc-arm-none-eabi-5_4-2016q3/bin/../lib/gcc/arm-none-eabi/5.4.1/armv7e-m/fpu/libgcc.a(unwind-arm.o)
__cxa_begin_cleanup                               /usr/local/gcc-arm-none-eabi-5_4-2016q3/bin/../lib/gcc/arm-none-eabi/5.4.1/armv7e-m/fpu/libgcc.a(unwind-arm.o)
__cxa_call_unexpected                             /usr/local/gcc-arm-none-eabi-5_4-2016q3/bin/../lib/gcc/arm-none-eabi/5.4.1/armv7e-m/fpu/libgcc.a(unwind-arm.o)
__cxa_type_match                                  /usr/local/gcc-arm-none-eabi-5_4-2016q3/bin/../lib/gcc/arm-none-eabi/5.4.1/armv7e-m/fpu/libgcc.a(unwind-arm.o)
__exidx_end                                       /usr/local/gcc-arm-none-eabi-5_4-2016q3/bin/../lib/gcc/arm-none-eabi/5.4.1/armv7e-m/fpu/libgcc.a(unwind-arm.o)
__exidx_start                                     /usr/local/gcc-arm-none-eabi-5_4-2016q3/bin/../lib/gcc/arm-none-eabi/5.4.1/armv7e-m/fpu/libgcc.a(unwind-arm.o)
__gnu_Unwind_Backtrace                            /usr/local/gcc-arm-none-eabi-5_4-2016q3/bin/../lib/gcc/arm-none-eabi/5.4.1/armv7e-m/fpu/libgcc.a(unwind-arm.o)
                                                  /usr/local/gcc-arm-none-eabi-5_4-2016q3/bin/../lib/gcc/arm-none-eabi/5.4.1/armv7e-m/fpu/libgcc.a(libunwind.o)
__gnu_Unwind_Find_exidx                           /usr/local/gcc-arm-none-eabi-5_4-2016q3/bin/../lib/gcc/arm-none-eabi/5.4.1/armv7e-m/fpu/libgcc.a(unwind-arm.o)
__gnu_Unwind_ForcedUnwind                         /usr/local/gcc-arm-none-eabi-5_4-2016q3/bin/../lib/gcc/arm-none-eabi/5.4.1/armv7e-m/fpu/libgcc.a(unwind-arm.o)
                                                  /usr/local/gcc-arm-none-eabi-5_4-2016q3/bin/../lib/gcc/arm-none-eabi/5.4.1/armv7e-m/fpu/libgcc.a(libunwind.o)
__gnu_Unwind_RaiseException                       /usr/local/gcc-arm-none-eabi-5_4-2016q3/bin/../lib/gcc/arm-none-eabi/5.4.1/armv7e-m/fpu/libgcc.a(unwind-arm.o)
                                                  /usr/local/gcc-arm-none-eabi-5_4-2016q3/bin/../lib/gcc/arm-none-eabi/5.4.1/armv7e-m/fpu/libgcc.a(libunwind.o)
__gnu_Unwind_Restore_VFP                          /usr/local/gcc-arm-none-eabi-5_4-2016q3/bin/../lib/gcc/arm-none-eabi/5.4.1/armv7e-m/fpu/libgcc.a(libunwind.o)
                                                  /usr/local/gcc-arm-none-eabi-5_4-2016q3/bin/../lib/gcc/arm-none-eabi/5.4.1/armv7e-m/fpu/libgcc.a(unwind-arm.o)
__gnu_Unwind_Restore_VFP_D                        /usr/local/gcc-arm-none-eabi-5_4-2016q3/bin/../lib/gcc/arm-none-eabi/5.4.1/armv7e-m/fpu/libgcc.a(libunwind.o)
                                                  /usr/local/gcc-arm-none-eabi-5_4-2016q3/bin/../lib/gcc/arm-none-eabi/5.4.1/armv7e-m/fpu/libgcc.a(unwind-arm.o)
__gnu_Unwind_Restore_VFP_D_16_to_31               /usr/local/gcc-arm-none-eabi-5_4-2016q3/bin/../lib/gcc/arm-none-eabi/5.4.1/armv7e-m/fpu/libgcc.a(libunwind.o)
                                                  /usr/local/gcc-arm-none-eabi-5_4-2016q3/bin/../lib/gcc/arm-none-eabi/5.4.1/armv7e-m/fpu/libgcc.a(unwind-arm.o)
__gnu_Unwind_Restore_WMMXC                        /usr/local/gcc-arm-none-eabi-5_4-2016q3/bin/../lib/gcc/arm-none-eabi/5.4.1/armv7e-m/fpu/libgcc.a(libunwind.o)
                                                  /usr/local/gcc-arm-none-eabi-5_4-2016q3/bin/../lib/gcc/arm-none-eabi/5.4.1/armv7e-m/fpu/libgcc.a(unwind-arm.o)
__gnu_Unwind_Restore_WMMXD                        /usr/local/gcc-arm-none-eabi-5_4-2016q3/bin/../lib/gcc/arm-none-eabi/5.4.1/armv7e-m/fpu/libgcc.a(libunwind.o)
                                                  /usr/local/gcc-arm-none-eabi-5_4-2016q3/bin/../lib/gcc/arm-none-eabi/5.4.1/armv7e-m/fpu/libgcc.a(unwind-arm.o)
__gnu_Unwind_Resume                               /usr/local/gcc-arm-none-eabi-5_4-2016q3/bin/../lib/gcc/arm-none-eabi/5.4.1/armv7e-m/fpu/libgcc.a(unwind-arm.o)
                                                  /usr/local/gcc-arm-none-eabi-5_4-2016q3/bin/../lib/gcc/arm-none-eabi/5.4.1/armv7e-m/fpu/libgcc.a(libunwind.o)
__gnu_Unwind_Resume_or_Rethrow                    /usr/local/gcc-arm-none-eabi-5_4-2016q3/bin/../lib/gcc/arm-none-eabi/5.4.1/armv7e-m/fpu/libgcc.a(unwind-arm.o)
                                                  /usr/local/gcc-arm-none-eabi-5_4-2016q3/bin/../lib/gcc/arm-none-eabi/5.4.1/armv7e-m/fpu/libgcc.a(libunwind.o)
__gnu_Unwind_Save_VFP                             /usr/local/gcc-arm-none-eabi-5_4-2016q3/bin/../lib/gcc/arm-none-eabi/5.4.1/armv7e-m/fpu/libgcc.a(libunwind.o)
                                                  /usr/local/gcc-arm-none-eabi-5_4-2016q3/bin/../lib/gcc/arm-none-eabi/5.4.1/armv7e-m/fpu/libgcc.a(unwind-arm.o)
__gnu_Unwind_Save_VFP_D                           /usr/local/gcc-arm-none-eabi-5_4-2016q3/bin/../lib/gcc/arm-none-eabi/5.4.1/armv7e-m/fpu/libgcc.a(libunwind.o)
                                                  /usr/local/gcc-arm-none-eabi-5_4-2016q3/bin/../lib/gcc/arm-none-eabi/5.4.1/armv7e-m/fpu/libgcc.a(unwind-arm.o)
__gnu_Unwind_Save_VFP_D_16_to_31                  /usr/local/gcc-arm-none-eabi-5_4-2016q3/bin/../lib/gcc/arm-none-eabi/5.4.1/armv7e-m/fpu/libgcc.a(libunwind.o)
                                                  /usr/local/gcc-arm-none-eabi-5_4-2016q3/bin/../lib/gcc/arm-none-eabi/5.4.1/armv7e-m/fpu/libgcc.a(unwind-arm.o)
__gnu_Unwind_Save_WMMXC                           /usr/local/gcc-arm-none-eabi-5_4-2016q3/bin/../lib/gcc/arm-none-eabi/5.4.1/armv7e-m/fpu/libgcc.a(libunwind.o)
                                                  /usr/local/gcc-arm-none-eabi-5_4-2016q3/bin/../lib/gcc/arm-none-eabi/5.4.1/armv7e-m/fpu/libgcc.a(unwind-arm.o)
__gnu_Unwind_Save_WMMXD                           /usr/local/gcc-arm-none-eabi-5_4-2016q3/bin/../lib/gcc/arm-none-eabi/5.4.1/armv7e-m/fpu/libgcc.a(libunwind.o)
                                                  /usr/local/gcc-arm-none-eabi-5_4-2016q3/bin/../lib/gcc/arm-none-eabi/5.4.1/armv7e-m/fpu/libgcc.a(unwind-arm.o)
__gnu_unwind_execute                              /usr/local/gcc-arm-none-eabi-5_4-2016q3/bin/../lib/gcc/arm-none-eabi/5.4.1/armv7e-m/fpu/libgcc.a(pr-support.o)
                                                  /usr/local/gcc-arm-none-eabi-5_4-2016q3/bin/../lib/gcc/arm-none-eabi/5.4.1/armv7e-m/fpu/libgcc.a(unwind-arm.o)
__gnu_unwind_frame                                /usr/local/gcc-arm-none-eabi-5_4-2016q3/bin/../lib/gcc/arm-none-eabi/5.4.1/armv7e-m/fpu/libgcc.a(pr-support.o)
__malloc_free_list                                /usr/local/gcc-arm-none-eabi-5_4-2016q3/bin/../lib/gcc/arm-none-eabi/5.4.1/../../../../arm-none-eabi/lib/armv7e-m/fpu/libc_nano.a(lib_a-nano-mallocr.o)
                                                  /usr/local/gcc-arm-none-eabi-5_4-2016q3/bin/../lib/gcc/arm-none-eabi/5.4.1/../../../../arm-none-eabi/lib/armv7e-m/fpu/libc_nano.a(lib_a-nano-freer.o)
__malloc_lock                                     /usr/local/gcc-arm-none-eabi-5_4-2016q3/bin/../lib/gcc/arm-none-eabi/5.4.1/../../../../arm-none-eabi/lib/armv7e-m/fpu/libc_nano.a(lib_a-mlock.o)
                                                  /usr/local/gcc-arm-none-eabi-5_4-2016q3/bin/../lib/gcc/arm-none-eabi/5.4.1/../../../../arm-none-eabi/lib/armv7e-m/fpu/libc_nano.a(lib_a-nano-mallocr.o)
                                                  /usr/local/gcc-arm-none-eabi-5_4-2016q3/bin/../lib/gcc/arm-none-eabi/5.4.1/../../../../arm-none-eabi/lib/armv7e-m/fpu/libc_nano.a(lib_a-nano-freer.o)
__malloc_sbrk_start                               /usr/local/gcc-arm-none-eabi-5_4-2016q3/bin/../lib/gcc/arm-none-eabi/5.4.1/../../../../arm-none-eabi/lib/armv7e-m/fpu/libc_nano.a(lib_a-nano-mallocr.o)
__malloc_unlock                                   /usr/local/gcc-arm-none-eabi-5_4-2016q3/bin/../lib/gcc/arm-none-eabi/5.4.1/../../../../arm-none-eabi/lib/armv7e-m/fpu/libc_nano.a(lib_a-mlock.o)
                                                  /usr/local/gcc-arm-none-eabi-5_4-2016q3/bin/../lib/gcc/arm-none-eabi/5.4.1/../../../../arm-none-eabi/lib/armv7e-m/fpu/libc_nano.a(lib_a-nano-mallocr.o)
                                                  /usr/local/gcc-arm-none-eabi-5_4-2016q3/bin/../lib/gcc/arm-none-eabi/5.4.1/../../../../arm-none-eabi/lib/armv7e-m/fpu/libc_nano.a(lib_a-nano-freer.o)
__restore_core_regs                               /usr/local/gcc-arm-none-eabi-5_4-2016q3/bin/../lib/gcc/arm-none-eabi/5.4.1/armv7e-m/fpu/libgcc.a(libunwind.o)
__sf_fake_stderr                                  /usr/local/gcc-arm-none-eabi-5_4-2016q3/bin/../lib/gcc/arm-none-eabi/5.4.1/../../../../arm-none-eabi/lib/armv7e-m/fpu/libc_nano.a(lib_a-impure.o)
__sf_fake_stdin                                   /usr/local/gcc-arm-none-eabi-5_4-2016q3/bin/../lib/gcc/arm-none-eabi/5.4.1/../../../../arm-none-eabi/lib/armv7e-m/fpu/libc_nano.a(lib_a-impure.o)
__sf_fake_stdout                                  /usr/local/gcc-arm-none-eabi-5_4-2016q3/bin/../lib/gcc/arm-none-eabi/5.4.1/../../../../arm-none-eabi/lib/armv7e-m/fpu/libc_nano.a(lib_a-impure.o)
__sigtramp                                        /usr/local/gcc-arm-none-eabi-5_4-2016q3/bin/../lib/gcc/arm-none-eabi/5.4.1/../../../../arm-none-eabi/lib/armv7e-m/fpu/libc_nano.a(lib_a-signal.o)
__sigtramp_r                                      /usr/local/gcc-arm-none-eabi-5_4-2016q3/bin/../lib/gcc/arm-none-eabi/5.4.1/../../../../arm-none-eabi/lib/armv7e-m/fpu/libc_nano.a(lib_a-signal.o)
__ssprint_r                                       /usr/local/gcc-arm-none-eabi-5_4-2016q3/bin/../lib/gcc/arm-none-eabi/5.4.1/../../../../arm-none-eabi/lib/armv7e-m/fpu/libc_nano.a(lib_a-nano-svfprintf.o)
__ssputs_r                                        /usr/local/gcc-arm-none-eabi-5_4-2016q3/bin/../lib/gcc/arm-none-eabi/5.4.1/../../../../arm-none-eabi/lib/armv7e-m/fpu/libc_nano.a(lib_a-nano-svfprintf.o)
_ebss                                             obj/MPU6050_raw/startup_stm32f30x_md_gcc.o
_edata                                            obj/MPU6050_raw/startup_stm32f30x_md_gcc.o
_estack                                           obj/MPU6050_raw/startup_stm32f30x_md_gcc.o
_exit                                             /usr/local/gcc-arm-none-eabi-5_4-2016q3/bin/../lib/gcc/arm-none-eabi/5.4.1/../../../../arm-none-eabi/lib/armv7e-m/fpu/libnosys.a(_exit.o)
                                                  /usr/local/gcc-arm-none-eabi-5_4-2016q3/bin/../lib/gcc/arm-none-eabi/5.4.1/../../../../arm-none-eabi/lib/armv7e-m/fpu/libc_nano.a(lib_a-abort.o)
_free_r                                           /usr/local/gcc-arm-none-eabi-5_4-2016q3/bin/../lib/gcc/arm-none-eabi/5.4.1/../../../../arm-none-eabi/lib/armv7e-m/fpu/libc_nano.a(lib_a-nano-freer.o)
                                                  /usr/local/gcc-arm-none-eabi-5_4-2016q3/bin/../lib/gcc/arm-none-eabi/5.4.1/../../../../arm-none-eabi/lib/armv7e-m/fpu/libc_nano.a(lib_a-nano-reallocr.o)
                                                  /usr/local/gcc-arm-none-eabi-5_4-2016q3/bin/../lib/gcc/arm-none-eabi/5.4.1/../../../../arm-none-eabi/lib/armv7e-m/fpu/libc_nano.a(lib_a-nano-svfprintf.o)
                                                  /usr/local/gcc-arm-none-eabi-5_4-2016q3/bin/../lib/gcc/arm-none-eabi/5.4.1/../../../../arm-none-eabi/lib/armv7e-m/fpu/libc_nano.a(lib_a-reent.o)
                                                  /usr/local/gcc-arm-none-eabi-5_4-2016q3/bin/../lib/gcc/arm-none-eabi/5.4.1/../../../../arm-none-eabi/lib/armv7e-m/fpu/libc_nano.a(lib_a-malloc.o)
_getpid                                           /usr/local/gcc-arm-none-eabi-5_4-2016q3/bin/../lib/gcc/arm-none-eabi/5.4.1/../../../../arm-none-eabi/lib/armv7e-m/fpu/libnosys.a(getpid.o)
                                                  /usr/local/gcc-arm-none-eabi-5_4-2016q3/bin/../lib/gcc/arm-none-eabi/5.4.1/../../../../arm-none-eabi/lib/armv7e-m/fpu/libc_nano.a(lib_a-signalr.o)
_getpid_r                                         /usr/local/gcc-arm-none-eabi-5_4-2016q3/bin/../lib/gcc/arm-none-eabi/5.4.1/../../../../arm-none-eabi/lib/armv7e-m/fpu/libc_nano.a(lib_a-signalr.o)
                                                  /usr/local/gcc-arm-none-eabi-5_4-2016q3/bin/../lib/gcc/arm-none-eabi/5.4.1/../../../../arm-none-eabi/lib/armv7e-m/fpu/libc_nano.a(lib_a-signal.o)
_global_impure_ptr                                /usr/local/gcc-arm-none-eabi-5_4-2016q3/bin/../lib/gcc/arm-none-eabi/5.4.1/../../../../arm-none-eabi/lib/armv7e-m/fpu/libc_nano.a(lib_a-impure.o)
_impure_ptr                                       /usr/local/gcc-arm-none-eabi-5_4-2016q3/bin/../lib/gcc/arm-none-eabi/5.4.1/../../../../arm-none-eabi/lib/armv7e-m/fpu/libc_nano.a(lib_a-impure.o)
                                                  /usr/local/gcc-arm-none-eabi-5_4-2016q3/bin/../lib/gcc/arm-none-eabi/5.4.1/../../../../arm-none-eabi/lib/armv7e-m/fpu/libc_nano.a(lib_a-vsprintf.o)
                                                  /usr/local/gcc-arm-none-eabi-5_4-2016q3/bin/../lib/gcc/arm-none-eabi/5.4.1/../../../../arm-none-eabi/lib/armv7e-m/fpu/libc_nano.a(lib_a-reent.o)
                                                  /usr/local/gcc-arm-none-eabi-5_4-2016q3/bin/../lib/gcc/arm-none-eabi/5.4.1/../../../../arm-none-eabi/lib/armv7e-m/fpu/libc_nano.a(lib_a-signal.o)
                                                  /usr/local/gcc-arm-none-eabi-5_4-2016q3/bin/../lib/gcc/arm-none-eabi/5.4.1/../../../../arm-none-eabi/lib/armv7e-m/fpu/libc_nano.a(lib_a-malloc.o)
_init_signal                                      /usr/local/gcc-arm-none-eabi-5_4-2016q3/bin/../lib/gcc/arm-none-eabi/5.4.1/../../../../arm-none-eabi/lib/armv7e-m/fpu/libc_nano.a(lib_a-signal.o)
_init_signal_r                                    /usr/local/gcc-arm-none-eabi-5_4-2016q3/bin/../lib/gcc/arm-none-eabi/5.4.1/../../../../arm-none-eabi/lib/armv7e-m/fpu/libc_nano.a(lib_a-signal.o)
_kill                                             /usr/local/gcc-arm-none-eabi-5_4-2016q3/bin/../lib/gcc/arm-none-eabi/5.4.1/../../../../arm-none-eabi/lib/armv7e-m/fpu/libnosys.a(kill.o)
                                                  /usr/local/gcc-arm-none-eabi-5_4-2016q3/bin/../lib/gcc/arm-none-eabi/5.4.1/../../../../arm-none-eabi/lib/armv7e-m/fpu/libc_nano.a(lib_a-signalr.o)
_kill_r                                           /usr/local/gcc-arm-none-eabi-5_4-2016q3/bin/../lib/gcc/arm-none-eabi/5.4.1/../../../../arm-none-eabi/lib/armv7e-m/fpu/libc_nano.a(lib_a-signalr.o)
                                                  /usr/local/gcc-arm-none-eabi-5_4-2016q3/bin/../lib/gcc/arm-none-eabi/5.4.1/../../../../arm-none-eabi/lib/armv7e-m/fpu/libc_nano.a(lib_a-signal.o)
_malloc_r                                         /usr/local/gcc-arm-none-eabi-5_4-2016q3/bin/../lib/gcc/arm-none-eabi/5.4.1/../../../../arm-none-eabi/lib/armv7e-m/fpu/libc_nano.a(lib_a-nano-mallocr.o)
                                                  /usr/local/gcc-arm-none-eabi-5_4-2016q3/bin/../lib/gcc/arm-none-eabi/5.4.1/../../../../arm-none-eabi/lib/armv7e-m/fpu/libc_nano.a(lib_a-nano-reallocr.o)
                                                  /usr/local/gcc-arm-none-eabi-5_4-2016q3/bin/../lib/gcc/arm-none-eabi/5.4.1/../../../../arm-none-eabi/lib/armv7e-m/fpu/libc_nano.a(lib_a-nano-svfprintf.o)
                                                  /usr/local/gcc-arm-none-eabi-5_4-2016q3/bin/../lib/gcc/arm-none-eabi/5.4.1/../../../../arm-none-eabi/lib/armv7e-m/fpu/libc_nano.a(lib_a-signal.o)
                                                  /usr/local/gcc-arm-none-eabi-5_4-2016q3/bin/../lib/gcc/arm-none-eabi/5.4.1/../../../../arm-none-eabi/lib/armv7e-m/fpu/libc_nano.a(lib_a-malloc.o)
_malloc_usable_size_r                             /usr/local/gcc-arm-none-eabi-5_4-2016q3/bin/../lib/gcc/arm-none-eabi/5.4.1/../../../../arm-none-eabi/lib/armv7e-m/fpu/libc_nano.a(lib_a-nano-msizer.o)
                                                  /usr/local/gcc-arm-none-eabi-5_4-2016q3/bin/../lib/gcc/arm-none-eabi/5.4.1/../../../../arm-none-eabi/lib/armv7e-m/fpu/libc_nano.a(lib_a-nano-reallocr.o)
_printf_common                                    /usr/local/gcc-arm-none-eabi-5_4-2016q3/bin/../lib/gcc/arm-none-eabi/5.4.1/../../../../arm-none-eabi/lib/armv7e-m/fpu/libc_nano.a(lib_a-nano-vfprintf_i.o)
_printf_float                                     /usr/local/gcc-arm-none-eabi-5_4-2016q3/bin/../lib/gcc/arm-none-eabi/5.4.1/../../../../arm-none-eabi/lib/armv7e-m/fpu/libc_nano.a(lib_a-nano-svfprintf.o)
_printf_i                                         /usr/local/gcc-arm-none-eabi-5_4-2016q3/bin/../lib/gcc/arm-none-eabi/5.4.1/../../../../arm-none-eabi/lib/armv7e-m/fpu/libc_nano.a(lib_a-nano-vfprintf_i.o)
                                                  /usr/local/gcc-arm-none-eabi-5_4-2016q3/bin/../lib/gcc/arm-none-eabi/5.4.1/../../../../arm-none-eabi/lib/armv7e-m/fpu/libc_nano.a(lib_a-nano-svfprintf.o)
_raise_r                                          /usr/local/gcc-arm-none-eabi-5_4-2016q3/bin/../lib/gcc/arm-none-eabi/5.4.1/../../../../arm-none-eabi/lib/armv7e-m/fpu/libc_nano.a(lib_a-signal.o)
_realloc_r                                        /usr/local/gcc-arm-none-eabi-5_4-2016q3/bin/../lib/gcc/arm-none-eabi/5.4.1/../../../../arm-none-eabi/lib/armv7e-m/fpu/libc_nano.a(lib_a-nano-reallocr.o)
                                                  /usr/local/gcc-arm-none-eabi-5_4-2016q3/bin/../lib/gcc/arm-none-eabi/5.4.1/../../../../arm-none-eabi/lib/armv7e-m/fpu/libc_nano.a(lib_a-nano-svfprintf.o)
_reclaim_reent                                    /usr/local/gcc-arm-none-eabi-5_4-2016q3/bin/../lib/gcc/arm-none-eabi/5.4.1/../../../../arm-none-eabi/lib/armv7e-m/fpu/libc_nano.a(lib_a-reent.o)
_sbrk                                             /usr/local/gcc-arm-none-eabi-5_4-2016q3/bin/../lib/gcc/arm-none-eabi/5.4.1/../../../../arm-none-eabi/lib/armv7e-m/fpu/libnosys.a(sbrk.o)
                                                  /usr/local/gcc-arm-none-eabi-5_4-2016q3/bin/../lib/gcc/arm-none-eabi/5.4.1/../../../../arm-none-eabi/lib/armv7e-m/fpu/libc_nano.a(lib_a-sbrkr.o)
_sbrk_r                                           /usr/local/gcc-arm-none-eabi-5_4-2016q3/bin/../lib/gcc/arm-none-eabi/5.4.1/../../../../arm-none-eabi/lib/armv7e-m/fpu/libc_nano.a(lib_a-sbrkr.o)
                                                  /usr/local/gcc-arm-none-eabi-5_4-2016q3/bin/../lib/gcc/arm-none-eabi/5.4.1/../../../../arm-none-eabi/lib/armv7e-m/fpu/libc_nano.a(lib_a-nano-mallocr.o)
_sbss                                             obj/MPU6050_raw/startup_stm32f30x_md_gcc.o
_sdata                                            obj/MPU6050_raw/startup_stm32f30x_md_gcc.o
_sidata                                           obj/MPU6050_raw/startup_stm32f30x_md_gcc.o
_signal_r                                         /usr/local/gcc-arm-none-eabi-5_4-2016q3/bin/../lib/gcc/arm-none-eabi/5.4.1/../../../../arm-none-eabi/lib/armv7e-m/fpu/libc_nano.a(lib_a-signal.o)
_svfiprintf_r                                     /usr/local/gcc-arm-none-eabi-5_4-2016q3/bin/../lib/gcc/arm-none-eabi/5.4.1/../../../../arm-none-eabi/lib/armv7e-m/fpu/libc_nano.a(lib_a-nano-svfprintf.o)
_svfprintf_r                                      /usr/local/gcc-arm-none-eabi-5_4-2016q3/bin/../lib/gcc/arm-none-eabi/5.4.1/../../../../arm-none-eabi/lib/armv7e-m/fpu/libc_nano.a(lib_a-nano-svfprintf.o)
                                                  /usr/local/gcc-arm-none-eabi-5_4-2016q3/bin/../lib/gcc/arm-none-eabi/5.4.1/../../../../arm-none-eabi/lib/armv7e-m/fpu/libc_nano.a(lib_a-vsprintf.o)
_vsiprintf_r                                      /usr/local/gcc-arm-none-eabi-5_4-2016q3/bin/../lib/gcc/arm-none-eabi/5.4.1/../../../../arm-none-eabi/lib/armv7e-m/fpu/libc_nano.a(lib_a-vsprintf.o)
_vsprintf_r                                       /usr/local/gcc-arm-none-eabi-5_4-2016q3/bin/../lib/gcc/arm-none-eabi/5.4.1/../../../../arm-none-eabi/lib/armv7e-m/fpu/libc_nano.a(lib_a-vsprintf.o)
abort                                             /usr/local/gcc-arm-none-eabi-5_4-2016q3/bin/../lib/gcc/arm-none-eabi/5.4.1/../../../../arm-none-eabi/lib/armv7e-m/fpu/libc_nano.a(lib_a-abort.o)
                                                  /usr/local/gcc-arm-none-eabi-5_4-2016q3/bin/../lib/gcc/arm-none-eabi/5.4.1/armv7e-m/fpu/libgcc.a(pr-support.o)
                                                  /usr/local/gcc-arm-none-eabi-5_4-2016q3/bin/../lib/gcc/arm-none-eabi/5.4.1/armv7e-m/fpu/libgcc.a(unwind-arm.o)
                                                  /usr/local/gcc-arm-none-eabi-5_4-2016q3/bin/../lib/gcc/arm-none-eabi/5.4.1/../../../../arm-none-eabi/lib/armv7e-m/fpu/libstdc++_nano.a(new_op.o)
bDeviceState                                      /tmp/ccm9M6LD.ltrans3.ltrans.o
                                                  obj/MPU6050_raw/vcp/usb_pwr.o (symbol from plugin)
                                                  /tmp/ccm9M6LD.ltrans1.ltrans.o
                                                  obj/MPU6050_raw/vcp/usb_prop.o (symbol from plugin)
                                                  obj/MPU6050_raw/vcp/hw_config.o (symbol from plugin)
bIntPackSOF                                       obj/MPU6050_raw/vcp/usb_istr.o (symbol from plugin)
cachedRccCsrValue                                 obj/MPU6050_raw/system.o (symbol from plugin)
                                                  obj/MPU6050_raw/system_stm32f30x.o (symbol from plugin)
cleanup_glue                                      /usr/local/gcc-arm-none-eabi-5_4-2016q3/bin/../lib/gcc/arm-none-eabi/5.4.1/../../../../arm-none-eabi/lib/armv7e-m/fpu/libc_nano.a(lib_a-reent.o)
configTimeBase                                    obj/MPU6050_raw/timer.o (symbol from plugin)
delay                                             obj/MPU6050_raw/system.o (symbol from plugin)
                                                  obj/MPU6050_raw/usb_io.o (symbol from plugin)
delayMicroseconds                                 obj/MPU6050_raw/system.o (symbol from plugin)
digitalWrite                                      obj/MPU6050_raw/Arduino.o (symbol from plugin)
dmaChannels                                       obj/MPU6050_raw/dma.o (symbol from plugin)
                                                  obj/MPU6050_raw/serial_uart_stm32f30x.o (symbol from plugin)
dmaHandlerInit                                    obj/MPU6050_raw/dma.o (symbol from plugin)
                                                  obj/MPU6050_raw/serial_uart_stm32f30x.o (symbol from plugin)
dmaInit                                           /tmp/ccm9M6LD.ltrans2.ltrans.o
                                                  obj/MPU6050_raw/dma.o (symbol from plugin)
                                                  obj/MPU6050_raw/Arduino.o (symbol from plugin)
dmaSetHandler                                     obj/MPU6050_raw/dma.o (symbol from plugin)
                                                  obj/MPU6050_raw/serial_uart_stm32f30x.o (symbol from plugin)
enableGPIOPowerUsageAndNoiseReductions            obj/MPU6050_raw/system_stm32f30x.o (symbol from plugin)
                                                  obj/MPU6050_raw/system.o (symbol from plugin)
end                                               /usr/local/gcc-arm-none-eabi-5_4-2016q3/bin/../lib/gcc/arm-none-eabi/5.4.1/../../../../arm-none-eabi/lib/armv7e-m/fpu/libnosys.a(sbrk.o)
errno                                             /usr/local/gcc-arm-none-eabi-5_4-2016q3/bin/../lib/gcc/arm-none-eabi/5.4.1/../../../../arm-none-eabi/lib/armv7e-m/fpu/libc_nano.a(lib_a-reent.o)
                                                  /usr/local/gcc-arm-none-eabi-5_4-2016q3/bin/../lib/gcc/arm-none-eabi/5.4.1/../../../../arm-none-eabi/lib/armv7e-m/fpu/libnosys.a(kill.o)
                                                  /usr/local/gcc-arm-none-eabi-5_4-2016q3/bin/../lib/gcc/arm-none-eabi/5.4.1/../../../../arm-none-eabi/lib/armv7e-m/fpu/libnosys.a(getpid.o)
                                                  /usr/local/gcc-arm-none-eabi-5_4-2016q3/bin/../lib/gcc/arm-none-eabi/5.4.1/../../../../arm-none-eabi/lib/armv7e-m/fpu/libc_nano.a(lib_a-signalr.o)
                                                  /usr/local/gcc-arm-none-eabi-5_4-2016q3/bin/../lib/gcc/arm-none-eabi/5.4.1/../../../../arm-none-eabi/lib/armv7e-m/fpu/libc_nano.a(lib_a-sbrkr.o)
esof_counter                                      obj/MPU6050_raw/vcp/usb_istr.o (symbol from plugin)
extiChannelRecs                                   obj/MPU6050_raw/exti.o (symbol from plugin)
fSuspendEnabled                                   obj/MPU6050_raw/vcp/usb_pwr.o (symbol from plugin)
failureMode                                       obj/MPU6050_raw/system.o (symbol from plugin)
free                                              /usr/local/gcc-arm-none-eabi-5_4-2016q3/bin/../lib/gcc/arm-none-eabi/5.4.1/../../../../arm-none-eabi/lib/armv7e-m/fpu/libc_nano.a(lib_a-malloc.o)
                                                  /usr/local/gcc-arm-none-eabi-5_4-2016q3/bin/../lib/gcc/arm-none-eabi/5.4.1/../../../../arm-none-eabi/lib/armv7e-m/fpu/libstdc++_nano.a(del_op.o)
g_pfnVectors                                      obj/MPU6050_raw/startup_stm32f30x_md_gcc.o
gpioInit                                          /tmp/ccm9M6LD.ltrans1.ltrans.o
                                                  obj/MPU6050_raw/gpio_stm32f30x.o (symbol from plugin)
                                                  /tmp/ccm9M6LD.ltrans0.ltrans.o
                                                  obj/MPU6050_raw/Arduino.o (symbol from plugin)
                                                  obj/MPU6050_raw/system_stm32f30x.o (symbol from plugin)
                                                  obj/MPU6050_raw/serial_uart.o (symbol from plugin)
                                                  obj/MPU6050_raw/light_led_stm32f30x.o (symbol from plugin)
                                                  obj/MPU6050_raw/timer.o (symbol from plugin)
hse_value                                         obj/MPU6050_raw/target/system_stm32f30x.o (symbol from plugin)
i2cInitPort                                       obj/MPU6050_raw/HardwareWire.o (symbol from plugin)
i2cSetOverclock                                   obj/MPU6050_raw/HardwareWire.o (symbol from plugin)
imu                                               obj/MPU6050_raw.o (symbol from plugin)
ioPortDefs                                        obj/MPU6050_raw/io.o (symbol from plugin)
ioRecs                                            obj/MPU6050_raw/io.o (symbol from plugin)
isMPUSoftReset                                    obj/MPU6050_raw/system_stm32f30x.o (symbol from plugin)
isSerialTransmitBufferEmpty                       obj/MPU6050_raw/serial.o (symbol from plugin)
                                                  obj/MPU6050_raw/Arduino.o (symbol from plugin)
isUartTransmitBufferEmpty                         obj/MPU6050_raw/serial_uart.o (symbol from plugin)
isUsbVcpTransmitBufferEmpty.lto_priv.48           /tmp/ccm9M6LD.ltrans1.ltrans.o
                                                  /tmp/ccm9M6LD.ltrans0.ltrans.o
ledInit                                           obj/MPU6050_raw/light_led_stm32f30x.o (symbol from plugin)
led_config                                        obj/MPU6050_raw/light_led_stm32f30x.o (symbol from plugin)
linecoding                                        obj/MPU6050_raw/vcp/usb_prop.o (symbol from plugin)
loop                                              obj/MPU6050_raw.o (symbol from plugin)
                                                  obj/MPU6050_raw/Arduino.o (symbol from plugin)
main                                              /tmp/ccm9M6LD.ltrans0.ltrans.o
                                                  obj/MPU6050_raw/Arduino.o (symbol from plugin)
                                                  obj/MPU6050_raw/startup_stm32f30x_md_gcc.o
malloc                                            /usr/local/gcc-arm-none-eabi-5_4-2016q3/bin/../lib/gcc/arm-none-eabi/5.4.1/../../../../arm-none-eabi/lib/armv7e-m/fpu/libc_nano.a(lib_a-malloc.o)
                                                  /usr/local/gcc-arm-none-eabi-5_4-2016q3/bin/../lib/gcc/arm-none-eabi/5.4.1/../../../../arm-none-eabi/lib/armv7e-m/fpu/libstdc++_nano.a(new_op.o)
memchr                                            /usr/local/gcc-arm-none-eabi-5_4-2016q3/bin/../lib/gcc/arm-none-eabi/5.4.1/../../../../arm-none-eabi/lib/armv7e-m/fpu/libc_nano.a(lib_a-memchr.o)
                                                  /usr/local/gcc-arm-none-eabi-5_4-2016q3/bin/../lib/gcc/arm-none-eabi/5.4.1/../../../../arm-none-eabi/lib/armv7e-m/fpu/libc_nano.a(lib_a-nano-vfprintf_i.o)
                                                  /usr/local/gcc-arm-none-eabi-5_4-2016q3/bin/../lib/gcc/arm-none-eabi/5.4.1/../../../../arm-none-eabi/lib/armv7e-m/fpu/libc_nano.a(lib_a-nano-svfprintf.o)
memcpy                                            /usr/local/gcc-arm-none-eabi-5_4-2016q3/bin/../lib/gcc/arm-none-eabi/5.4.1/../../../../arm-none-eabi/lib/armv7e-m/fpu/libc_nano.a(lib_a-memcpy-stub.o)
                                                  /usr/local/gcc-arm-none-eabi-5_4-2016q3/bin/../lib/gcc/arm-none-eabi/5.4.1/armv7e-m/fpu/libgcc.a(unwind-arm.o)
                                                  /usr/local/gcc-arm-none-eabi-5_4-2016q3/bin/../lib/gcc/arm-none-eabi/5.4.1/../../../../arm-none-eabi/lib/armv7e-m/fpu/libc_nano.a(lib_a-nano-reallocr.o)
                                                  /usr/local/gcc-arm-none-eabi-5_4-2016q3/bin/../lib/gcc/arm-none-eabi/5.4.1/../../../../arm-none-eabi/lib/armv7e-m/fpu/libc_nano.a(lib_a-nano-svfprintf.o)
memmove                                           /usr/local/gcc-arm-none-eabi-5_4-2016q3/bin/../lib/gcc/arm-none-eabi/5.4.1/../../../../arm-none-eabi/lib/armv7e-m/fpu/libc_nano.a(lib_a-memmove.o)
                                                  /usr/local/gcc-arm-none-eabi-5_4-2016q3/bin/../lib/gcc/arm-none-eabi/5.4.1/../../../../arm-none-eabi/lib/armv7e-m/fpu/libc_nano.a(lib_a-nano-svfprintf.o)
memset                                            /usr/local/gcc-arm-none-eabi-5_4-2016q3/bin/../lib/gcc/arm-none-eabi/5.4.1/../../../../arm-none-eabi/lib/armv7e-m/fpu/libc_nano.a(lib_a-memset.o)
                                                  /tmp/ccm9M6LD.ltrans0.ltrans.o
micros                                            /tmp/ccm9M6LD.ltrans1.ltrans.o
                                                  obj/MPU6050_raw/system.o (symbol from plugin)
                                                  /tmp/ccm9M6LD.ltrans0.ltrans.o
millis                                            obj/MPU6050_raw/system.o (symbol from plugin)
                                                  obj/MPU6050_raw/Arduino.o (symbol from plugin)
                                                  obj/MPU6050_raw/serial_usb_vcp.o (symbol from plugin)
operator delete(void*)                            /usr/local/gcc-arm-none-eabi-5_4-2016q3/bin/../lib/gcc/arm-none-eabi/5.4.1/../../../../arm-none-eabi/lib/armv7e-m/fpu/libstdc++_nano.a(del_op.o)
                                                  obj/MPU6050_raw.o (symbol from plugin)
operator new(unsigned int)                        /usr/local/gcc-arm-none-eabi-5_4-2016q3/bin/../lib/gcc/arm-none-eabi/5.4.1/../../../../arm-none-eabi/lib/armv7e-m/fpu/libstdc++_nano.a(new_op.o)
                                                  /tmp/ccm9M6LD.ltrans0.ltrans.o
                                                  obj/MPU6050_raw.o (symbol from plugin)
pEpInt_IN                                         obj/MPU6050_raw/vcp/usb_istr.o (symbol from plugin)
                                                  obj/MPU6050_raw/usb_int.o (symbol from plugin)
pEpInt_OUT                                        obj/MPU6050_raw/vcp/usb_istr.o (symbol from plugin)
                                                  obj/MPU6050_raw/usb_int.o (symbol from plugin)
pInformation                                      /tmp/ccm9M6LD.ltrans0.ltrans.o
                                                  obj/MPU6050_raw/usb_init.o (symbol from plugin)
                                                  /tmp/ccm9M6LD.ltrans3.ltrans.o
                                                  /tmp/ccm9M6LD.ltrans2.ltrans.o
                                                  /tmp/ccm9M6LD.ltrans1.ltrans.o
                                                  obj/MPU6050_raw/vcp/usb_prop.o (symbol from plugin)
                                                  obj/MPU6050_raw/usb_core.o (symbol from plugin)
pProperty                                         /tmp/ccm9M6LD.ltrans0.ltrans.o
                                                  obj/MPU6050_raw/usb_init.o (symbol from plugin)
                                                  /tmp/ccm9M6LD.ltrans2.ltrans.o
                                                  obj/MPU6050_raw/usb_core.o (symbol from plugin)
pUser_Standard_Requests                           /tmp/ccm9M6LD.ltrans0.ltrans.o
                                                  obj/MPU6050_raw/usb_init.o (symbol from plugin)
                                                  /tmp/ccm9M6LD.ltrans2.ltrans.o
                                                  /tmp/ccm9M6LD.ltrans1.ltrans.o
                                                  obj/MPU6050_raw/usb_core.o (symbol from plugin)
packetSent                                        /tmp/ccm9M6LD.ltrans3.ltrans.o
                                                  obj/MPU6050_raw/vcp/hw_config.o (symbol from plugin)
                                                  /tmp/ccm9M6LD.ltrans2.ltrans.o
                                                  /tmp/ccm9M6LD.ltrans1.ltrans.o
                                                  obj/MPU6050_raw/vcp/usb_endp.o (symbol from plugin)
pinMode                                           obj/MPU6050_raw/Arduino.o (symbol from plugin)
raise                                             /usr/local/gcc-arm-none-eabi-5_4-2016q3/bin/../lib/gcc/arm-none-eabi/5.4.1/../../../../arm-none-eabi/lib/armv7e-m/fpu/libc_nano.a(lib_a-signal.o)
                                                  /usr/local/gcc-arm-none-eabi-5_4-2016q3/bin/../lib/gcc/arm-none-eabi/5.4.1/../../../../arm-none-eabi/lib/armv7e-m/fpu/libc_nano.a(lib_a-abort.o)
receiveBuffer                                     /tmp/ccm9M6LD.ltrans3.ltrans.o
                                                  obj/MPU6050_raw/vcp/hw_config.o (symbol from plugin)
                                                  /tmp/ccm9M6LD.ltrans1.ltrans.o
                                                  obj/MPU6050_raw/vcp/usb_endp.o (symbol from plugin)
receiveLength                                     /tmp/ccm9M6LD.ltrans3.ltrans.o
                                                  obj/MPU6050_raw/vcp/usb_endp.o (symbol from plugin)
                                                  /tmp/ccm9M6LD.ltrans1.ltrans.o
                                                  obj/MPU6050_raw/vcp/hw_config.o (symbol from plugin)
                                                  obj/MPU6050_raw/serial_usb_vcp.o (symbol from plugin)
remotewakeupon                                    obj/MPU6050_raw/vcp/usb_pwr.o (symbol from plugin)
reset                                             obj/MPU6050_raw/Arduino.o (symbol from plugin)
resetToBootloader                                 obj/MPU6050_raw/Arduino.o (symbol from plugin)
restore_core_regs                                 /usr/local/gcc-arm-none-eabi-5_4-2016q3/bin/../lib/gcc/arm-none-eabi/5.4.1/armv7e-m/fpu/libgcc.a(libunwind.o)
                                                  /usr/local/gcc-arm-none-eabi-5_4-2016q3/bin/../lib/gcc/arm-none-eabi/5.4.1/armv7e-m/fpu/libgcc.a(unwind-arm.o)
sendLength                                        obj/MPU6050_raw/vcp/hw_config.o (symbol from plugin)
serial0                                           obj/MPU6050_raw/Arduino.o (symbol from plugin)
serialBeginWrite                                  obj/MPU6050_raw/serial.o (symbol from plugin)
serialEndWrite                                    obj/MPU6050_raw/serial.o (symbol from plugin)
serialEvent1()                                    obj/MPU6050_raw/Arduino.o (symbol from plugin)
serialGetBaudRate                                 obj/MPU6050_raw/serial.o (symbol from plugin)
serialPrint                                       obj/MPU6050_raw/serial.o (symbol from plugin)
serialRead                                        obj/MPU6050_raw/serial.o (symbol from plugin)
                                                  obj/MPU6050_raw/Arduino.o (symbol from plugin)
serialRxBytesWaiting                              obj/MPU6050_raw/serial.o (symbol from plugin)
                                                  obj/MPU6050_raw/Arduino.o (symbol from plugin)
serialSetBaudRate                                 obj/MPU6050_raw/serial.o (symbol from plugin)
serialSetMode                                     obj/MPU6050_raw/serial.o (symbol from plugin)
serialTxBytesFree                                 obj/MPU6050_raw/serial.o (symbol from plugin)
serialUART1                                       obj/MPU6050_raw/serial_uart_stm32f30x.o (symbol from plugin)
                                                  obj/MPU6050_raw/serial_uart.o (symbol from plugin)
serialUART2                                       obj/MPU6050_raw/serial_uart_stm32f30x.o (symbol from plugin)
                                                  obj/MPU6050_raw/serial_uart.o (symbol from plugin)
serialUART3                                       obj/MPU6050_raw/serial_uart_stm32f30x.o (symbol from plugin)
                                                  obj/MPU6050_raw/serial_uart.o (symbol from plugin)
serialWrite                                       obj/MPU6050_raw/serial.o (symbol from plugin)
                                                  obj/MPU6050_raw/Arduino.o (symbol from plugin)
serialWriteBuf                                    obj/MPU6050_raw/serial.o (symbol from plugin)
serialWriteBufShim                                obj/MPU6050_raw/serial.o (symbol from plugin)
setup                                             obj/MPU6050_raw.o (symbol from plugin)
                                                  obj/MPU6050_raw/Arduino.o (symbol from plugin)
signal                                            /usr/local/gcc-arm-none-eabi-5_4-2016q3/bin/../lib/gcc/arm-none-eabi/5.4.1/../../../../arm-none-eabi/lib/armv7e-m/fpu/libc_nano.a(lib_a-signal.o)
std::get_new_handler()                            /usr/local/gcc-arm-none-eabi-5_4-2016q3/bin/../lib/gcc/arm-none-eabi/5.4.1/../../../../arm-none-eabi/lib/armv7e-m/fpu/libstdc++_nano.a(new_handler.o)
                                                  /usr/local/gcc-arm-none-eabi-5_4-2016q3/bin/../lib/gcc/arm-none-eabi/5.4.1/../../../../arm-none-eabi/lib/armv7e-m/fpu/libstdc++_nano.a(new_op.o)
std::nothrow                                      /usr/local/gcc-arm-none-eabi-5_4-2016q3/bin/../lib/gcc/arm-none-eabi/5.4.1/../../../../arm-none-eabi/lib/armv7e-m/fpu/libstdc++_nano.a(new_handler.o)
std::set_new_handler(void (*)())                  /usr/local/gcc-arm-none-eabi-5_4-2016q3/bin/../lib/gcc/arm-none-eabi/5.4.1/../../../../arm-none-eabi/lib/armv7e-m/fpu/libstdc++_nano.a(new_handler.o)
sysTickUptime.lto_priv.55                         /tmp/ccm9M6LD.ltrans0.ltrans.o
                                                  /tmp/ccm9M6LD.ltrans1.ltrans.o
systemInit                                        obj/MPU6050_raw/system.o (symbol from plugin)
                                                  obj/MPU6050_raw/Arduino.o (symbol from plugin)
systemReset                                       obj/MPU6050_raw/system_stm32f30x.o (symbol from plugin)
                                                  obj/MPU6050_raw/Arduino.o (symbol from plugin)
systemResetToBootloader                           obj/MPU6050_raw/system_stm32f30x.o (symbol from plugin)
                                                  obj/MPU6050_raw/Arduino.o (symbol from plugin)
timerChCCHandlerInit                              obj/MPU6050_raw/timer.o (symbol from plugin)
timerChCCR                                        obj/MPU6050_raw/timer.o (symbol from plugin)
timerChCCRHi                                      obj/MPU6050_raw/timer.o (symbol from plugin)
timerChCCRLo                                      obj/MPU6050_raw/timer.o (symbol from plugin)
timerChClearCCFlag                                obj/MPU6050_raw/timer.o (symbol from plugin)
timerChConfigCallbacks                            obj/MPU6050_raw/timer.o (symbol from plugin)
timerChConfigCallbacksDual                        obj/MPU6050_raw/timer.o (symbol from plugin)
timerChConfigGPIO                                 obj/MPU6050_raw/timer.o (symbol from plugin)
timerChConfigIC                                   obj/MPU6050_raw/timer.o (symbol from plugin)
timerChConfigICDual                               obj/MPU6050_raw/timer.o (symbol from plugin)
timerChConfigOC                                   obj/MPU6050_raw/timer.o (symbol from plugin)
timerChICPolarity                                 obj/MPU6050_raw/timer.o (symbol from plugin)
timerChITConfig                                   obj/MPU6050_raw/timer.o (symbol from plugin)
timerChITConfigDualLo                             obj/MPU6050_raw/timer.o (symbol from plugin)
timerChInit                                       obj/MPU6050_raw/timer.o (symbol from plugin)
timerChOvrHandlerInit                             obj/MPU6050_raw/timer.o (symbol from plugin)
timerChannelInfo                                  obj/MPU6050_raw/timer.o (symbol from plugin)
timerConfig                                       /tmp/ccm9M6LD.ltrans0.ltrans.o
                                                  obj/MPU6050_raw/timer.o (symbol from plugin)
                                                  /tmp/ccm9M6LD.ltrans1.ltrans.o
timerConfigure                                    obj/MPU6050_raw/timer.o (symbol from plugin)
timerForceOverflow                                obj/MPU6050_raw/timer.o (symbol from plugin)
timerHardware                                     obj/MPU6050_raw/timer.o (symbol from plugin)
timerInfo                                         obj/MPU6050_raw/timer.o (symbol from plugin)
timerInit                                         obj/MPU6050_raw/timer.o (symbol from plugin)
                                                  obj/MPU6050_raw/Arduino.o (symbol from plugin)
timerNVICConfigure                                obj/MPU6050_raw/timer.o (symbol from plugin)
timerStart                                        obj/MPU6050_raw/timer.o (symbol from plugin)
uartOpen                                          obj/MPU6050_raw/serial_uart.o (symbol from plugin)
                                                  obj/MPU6050_raw/Arduino.o (symbol from plugin)
uartRead                                          obj/MPU6050_raw/serial_uart.o (symbol from plugin)
uartSetBaudRate                                   obj/MPU6050_raw/serial_uart.o (symbol from plugin)
uartSetMode                                       obj/MPU6050_raw/serial_uart.o (symbol from plugin)
uartStartTxDMA                                    obj/MPU6050_raw/serial_uart.o (symbol from plugin)
                                                  obj/MPU6050_raw/serial_uart_stm32f30x.o (symbol from plugin)
uartTotalRxBytesWaiting                           obj/MPU6050_raw/serial_uart.o (symbol from plugin)
uartTotalTxBytesFree                              obj/MPU6050_raw/serial_uart.o (symbol from plugin)
uartVTable                                        obj/MPU6050_raw/serial_uart.o (symbol from plugin)
                                                  obj/MPU6050_raw/serial_uart_stm32f30x.o (symbol from plugin)
uartWrite                                         obj/MPU6050_raw/serial_uart.o (symbol from plugin)
usTicks.lto_priv.56                               /tmp/ccm9M6LD.ltrans0.ltrans.o
                                                  /tmp/ccm9M6LD.ltrans1.ltrans.o
usartInitAllIOSignals                             obj/MPU6050_raw/serial_uart.o (symbol from plugin)
                                                  obj/MPU6050_raw/system.o (symbol from plugin)
usartIrqHandler                                   obj/MPU6050_raw/serial_uart_stm32f30x.o (symbol from plugin)
usbCableDetectDeinit                              obj/MPU6050_raw/usb_io.o (symbol from plugin)
usbCableDetectInit                                obj/MPU6050_raw/usb_io.o (symbol from plugin)
usbCableIsInserted                                obj/MPU6050_raw/usb_io.o (symbol from plugin)
usbGenerateDisconnectPulse                        obj/MPU6050_raw/usb_io.o (symbol from plugin)
                                                  obj/MPU6050_raw/vcp/hw_config.o (symbol from plugin)
usbIsConfigured                                   obj/MPU6050_raw/vcp/hw_config.o (symbol from plugin)
                                                  obj/MPU6050_raw/serial_usb_vcp.o (symbol from plugin)
usbIsConnected                                    obj/MPU6050_raw/vcp/hw_config.o (symbol from plugin)
                                                  obj/MPU6050_raw/serial_usb_vcp.o (symbol from plugin)
usbTxBytesFree                                    /tmp/ccm9M6LD.ltrans1.ltrans.o
                                                  obj/MPU6050_raw/serial_usb_vcp.o (symbol from plugin)
                                                  /tmp/ccm9M6LD.ltrans0.ltrans.o
usbVcpAvailable.lto_priv.45                       /tmp/ccm9M6LD.ltrans1.ltrans.o
                                                  /tmp/ccm9M6LD.ltrans0.ltrans.o
usbVcpBeginWrite.lto_priv.51                      /tmp/ccm9M6LD.ltrans1.ltrans.o
                                                  /tmp/ccm9M6LD.ltrans0.ltrans.o
usbVcpEndWrite.lto_priv.52                        /tmp/ccm9M6LD.ltrans1.ltrans.o
                                                  /tmp/ccm9M6LD.ltrans0.ltrans.o
usbVcpGetBaudRate                                 obj/MPU6050_raw/serial_usb_vcp.o (symbol from plugin)
usbVcpOpen                                        obj/MPU6050_raw/serial_usb_vcp.o (symbol from plugin)
                                                  obj/MPU6050_raw/Arduino.o (symbol from plugin)
usbVcpRead.lto_priv.46                            /tmp/ccm9M6LD.ltrans1.ltrans.o
                                                  /tmp/ccm9M6LD.ltrans0.ltrans.o
usbVcpSetBaudRate.lto_priv.47                     /tmp/ccm9M6LD.ltrans1.ltrans.o
                                                  /tmp/ccm9M6LD.ltrans0.ltrans.o
usbVcpSetMode.lto_priv.49                         /tmp/ccm9M6LD.ltrans1.ltrans.o
                                                  /tmp/ccm9M6LD.ltrans0.ltrans.o
usbVcpWrite.lto_priv.44                           /tmp/ccm9M6LD.ltrans1.ltrans.o
                                                  /tmp/ccm9M6LD.ltrans0.ltrans.o
usbVcpWriteBuf.lto_priv.50                        /tmp/ccm9M6LD.ltrans1.ltrans.o
                                                  /tmp/ccm9M6LD.ltrans0.ltrans.o
usedTimers                                        obj/MPU6050_raw/timer.o (symbol from plugin)
vsiprintf                                         /usr/local/gcc-arm-none-eabi-5_4-2016q3/bin/../lib/gcc/arm-none-eabi/5.4.1/../../../../arm-none-eabi/lib/armv7e-m/fpu/libc_nano.a(lib_a-vsprintf.o)
vsprintf                                          /usr/local/gcc-arm-none-eabi-5_4-2016q3/bin/../lib/gcc/arm-none-eabi/5.4.1/../../../../arm-none-eabi/lib/armv7e-m/fpu/libc_nano.a(lib_a-vsprintf.o)
                                                  /tmp/ccm9M6LD.ltrans4.ltrans.o
wCNTR                                             obj/MPU6050_raw/vcp/usb_istr.o (symbol from plugin)
wInterrupt_Mask                                   /tmp/ccm9M6LD.ltrans3.ltrans.o
                                                  obj/MPU6050_raw/usb_init.o (symbol from plugin)
                                                  /tmp/ccm9M6LD.ltrans2.ltrans.o
                                                  obj/MPU6050_raw/vcp/usb_pwr.o (symbol from plugin)
                                                  obj/MPU6050_raw/vcp/usb_istr.o (symbol from plugin)
                                                  obj/MPU6050_raw/usb_sil.o (symbol from plugin)
wIstr                                             obj/MPU6050_raw/vcp/usb_istr.o (symbol from plugin)
                                                  obj/MPU6050_raw/usb_int.o (symbol from plugin)
