Archive member included because of file (symbol)

/opt/gcc-arm-none-eabi/bin/../lib/gcc/arm-none-eabi/4.8.4/armv7-m/libgcc.a(_arm_addsubdf3.o)
                              /tmp/ccNRKbnw.ltrans1.ltrans.o (__aeabi_dadd)
/opt/gcc-arm-none-eabi/bin/../lib/gcc/arm-none-eabi/4.8.4/armv7-m/libgcc.a(_arm_muldivdf3.o)
                              /tmp/ccNRKbnw.ltrans1.ltrans.o (__aeabi_dmul)
/opt/gcc-arm-none-eabi/bin/../lib/gcc/arm-none-eabi/4.8.4/armv7-m/libgcc.a(_arm_fixdfsi.o)
                              /tmp/ccNRKbnw.ltrans1.ltrans.o (__aeabi_d2iz)

Allocating common symbols
Common symbol       size              file

timerConfigs        0x100             obj/myproject/../..//drv_timer.o (symbol from plugin)

Discarded input sections

 .text          0x00000000        0x0 obj/myproject/../..//main.o (symbol from plugin)
 .data          0x00000000        0x0 /opt/gcc-arm-none-eabi/bin/../lib/gcc/arm-none-eabi/4.8.4/armv7-m/libgcc.a(_arm_addsubdf3.o)
 .bss           0x00000000        0x0 /opt/gcc-arm-none-eabi/bin/../lib/gcc/arm-none-eabi/4.8.4/armv7-m/libgcc.a(_arm_addsubdf3.o)
 .data          0x00000000        0x0 /opt/gcc-arm-none-eabi/bin/../lib/gcc/arm-none-eabi/4.8.4/armv7-m/libgcc.a(_arm_muldivdf3.o)
 .bss           0x00000000        0x0 /opt/gcc-arm-none-eabi/bin/../lib/gcc/arm-none-eabi/4.8.4/armv7-m/libgcc.a(_arm_muldivdf3.o)
 .data          0x00000000        0x0 /opt/gcc-arm-none-eabi/bin/../lib/gcc/arm-none-eabi/4.8.4/armv7-m/libgcc.a(_arm_fixdfsi.o)
 .bss           0x00000000        0x0 /opt/gcc-arm-none-eabi/bin/../lib/gcc/arm-none-eabi/4.8.4/armv7-m/libgcc.a(_arm_fixdfsi.o)
 .text          0x00000000       0x14 obj/myproject/../..//startup_stm32f10x_md_gcc.o
 .data          0x00000000        0x0 obj/myproject/../..//startup_stm32f10x_md_gcc.o
 .bss           0x00000000        0x0 obj/myproject/../..//startup_stm32f10x_md_gcc.o
 .text          0x00000000        0x0 obj/myproject/../..//drv_gpio.o (symbol from plugin)
 .text          0x00000000        0x0 obj/myproject/../..//drv_i2c.o (symbol from plugin)
 .text          0x00000000        0x0 obj/myproject/../..//drv_mb1242.o (symbol from plugin)
 .text          0x00000000        0x0 obj/myproject/../..//drv_adc.o (symbol from plugin)
 .text          0x00000000        0x0 obj/myproject/../..//drv_spi.o (symbol from plugin)
 .text          0x00000000        0x0 obj/myproject/../..//drv_pwm.o (symbol from plugin)
 .text          0x00000000        0x0 obj/myproject/../..//drv_system.o (symbol from plugin)
 .text          0x00000000        0x0 obj/myproject/../..//drv_serial.o (symbol from plugin)
 .text          0x00000000        0x0 obj/myproject/../..//drv_uart.o (symbol from plugin)
 .text          0x00000000        0x0 obj/myproject/../..//drv_timer.o (symbol from plugin)
 .text          0x00000000        0x0 obj/myproject/../..//printf.o (symbol from plugin)
 .text          0x00000000        0x0 obj/myproject/mb1242read.o (symbol from plugin)
 .text          0x00000000        0x0 obj/myproject/core_cm3.o (symbol from plugin)
 .text          0x00000000        0x0 obj/myproject/system_stm32f10x.o (symbol from plugin)
 .text          0x00000000        0x0 obj/myproject/misc.o (symbol from plugin)
 .text          0x00000000        0x0 obj/myproject/stm32f10x_adc.o (symbol from plugin)
 .text          0x00000000        0x0 obj/myproject/stm32f10x_bkp.o (symbol from plugin)
 .text          0x00000000        0x0 obj/myproject/stm32f10x_can.o (symbol from plugin)
 .text          0x00000000        0x0 obj/myproject/stm32f10x_cec.o (symbol from plugin)
 .text          0x00000000        0x0 obj/myproject/stm32f10x_crc.o (symbol from plugin)
 .text          0x00000000        0x0 obj/myproject/stm32f10x_dac.o (symbol from plugin)
 .text          0x00000000        0x0 obj/myproject/stm32f10x_dbgmcu.o (symbol from plugin)
 .text          0x00000000        0x0 obj/myproject/stm32f10x_dma.o (symbol from plugin)
 .text          0x00000000        0x0 obj/myproject/stm32f10x_exti.o (symbol from plugin)
 .text          0x00000000        0x0 obj/myproject/stm32f10x_flash.o (symbol from plugin)
 .text          0x00000000        0x0 obj/myproject/stm32f10x_fsmc.o (symbol from plugin)
 .text          0x00000000        0x0 obj/myproject/stm32f10x_gpio.o (symbol from plugin)
 .text          0x00000000        0x0 obj/myproject/stm32f10x_i2c.o (symbol from plugin)
 .text          0x00000000        0x0 obj/myproject/stm32f10x_iwdg.o (symbol from plugin)
 .text          0x00000000        0x0 obj/myproject/stm32f10x_pwr.o (symbol from plugin)
 .text          0x00000000        0x0 obj/myproject/stm32f10x_rcc.o (symbol from plugin)
 .text          0x00000000        0x0 obj/myproject/stm32f10x_rtc.o (symbol from plugin)
 .text          0x00000000        0x0 obj/myproject/stm32f10x_sdio.o (symbol from plugin)
 .text          0x00000000        0x0 obj/myproject/stm32f10x_spi.o (symbol from plugin)
 .text          0x00000000        0x0 obj/myproject/stm32f10x_tim.o (symbol from plugin)
 .text          0x00000000        0x0 obj/myproject/stm32f10x_usart.o (symbol from plugin)
 .text          0x00000000        0x0 obj/myproject/stm32f10x_wwdg.o (symbol from plugin)

Memory Configuration

Name             Origin             Length             Attributes
FLASH            0x08000000         0x0001f800         xr
RAM              0x20000000         0x00005000         xrw
MEMORY_B1        0x60000000         0x00000000         xr
*default*        0x00000000         0xffffffff

Linker script and memory map

LOAD obj/myproject/../..//main.o
LOAD /tmp/ccNRKbnw.ltrans0.ltrans.o
LOAD /tmp/ccNRKbnw.ltrans1.ltrans.o
LOAD /opt/gcc-arm-none-eabi/bin/../lib/gcc/arm-none-eabi/4.8.4/armv7-m/libgcc.a
LOAD /opt/gcc-arm-none-eabi/bin/../lib/gcc/arm-none-eabi/4.8.4/../../../../arm-none-eabi/lib/armv7-m/libg_s.a
LOAD /opt/gcc-arm-none-eabi/bin/../lib/gcc/arm-none-eabi/4.8.4/../../../../arm-none-eabi/lib/armv7-m/libc_s.a
LOAD /opt/gcc-arm-none-eabi/bin/../lib/gcc/arm-none-eabi/4.8.4/armv7-m/libgcc.a
LOAD /opt/gcc-arm-none-eabi/bin/../lib/gcc/arm-none-eabi/4.8.4/../../../../arm-none-eabi/lib/armv7-m/libc_s.a
LOAD obj/myproject/../..//startup_stm32f10x_md_gcc.o
LOAD obj/myproject/../..//drv_gpio.o
LOAD obj/myproject/../..//drv_i2c.o
LOAD obj/myproject/../..//drv_mb1242.o
LOAD obj/myproject/../..//drv_adc.o
LOAD obj/myproject/../..//drv_spi.o
LOAD obj/myproject/../..//drv_pwm.o
LOAD obj/myproject/../..//drv_system.o
LOAD obj/myproject/../..//drv_serial.o
LOAD obj/myproject/../..//drv_uart.o
LOAD obj/myproject/../..//drv_timer.o
LOAD obj/myproject/../..//printf.o
LOAD obj/myproject/mb1242read.o
LOAD obj/myproject/core_cm3.o
LOAD obj/myproject/system_stm32f10x.o
LOAD obj/myproject/misc.o
LOAD obj/myproject/stm32f10x_adc.o
LOAD obj/myproject/stm32f10x_bkp.o
LOAD obj/myproject/stm32f10x_can.o
LOAD obj/myproject/stm32f10x_cec.o
LOAD obj/myproject/stm32f10x_crc.o
LOAD obj/myproject/stm32f10x_dac.o
LOAD obj/myproject/stm32f10x_dbgmcu.o
LOAD obj/myproject/stm32f10x_dma.o
LOAD obj/myproject/stm32f10x_exti.o
LOAD obj/myproject/stm32f10x_flash.o
LOAD obj/myproject/stm32f10x_fsmc.o
LOAD obj/myproject/stm32f10x_gpio.o
LOAD obj/myproject/stm32f10x_i2c.o
LOAD obj/myproject/stm32f10x_iwdg.o
LOAD obj/myproject/stm32f10x_pwr.o
LOAD obj/myproject/stm32f10x_rcc.o
LOAD obj/myproject/stm32f10x_rtc.o
LOAD obj/myproject/stm32f10x_sdio.o
LOAD obj/myproject/stm32f10x_spi.o
LOAD obj/myproject/stm32f10x_tim.o
LOAD obj/myproject/stm32f10x_usart.o
LOAD obj/myproject/stm32f10x_wwdg.o
LOAD /opt/gcc-arm-none-eabi/bin/../lib/gcc/arm-none-eabi/4.8.4/../../../../arm-none-eabi/lib/armv7-m/libm.a
LOAD /opt/gcc-arm-none-eabi/bin/../lib/gcc/arm-none-eabi/4.8.4/../../../../arm-none-eabi/lib/armv7-m/libc_s.a
LOAD /opt/gcc-arm-none-eabi/bin/../lib/gcc/arm-none-eabi/4.8.4/../../../../arm-none-eabi/lib/armv7-m/libnosys.a
START GROUP
LOAD /opt/gcc-arm-none-eabi/bin/../lib/gcc/arm-none-eabi/4.8.4/armv7-m/libgcc.a
LOAD /opt/gcc-arm-none-eabi/bin/../lib/gcc/arm-none-eabi/4.8.4/../../../../arm-none-eabi/lib/armv7-m/libg_s.a
LOAD /opt/gcc-arm-none-eabi/bin/../lib/gcc/arm-none-eabi/4.8.4/../../../../arm-none-eabi/lib/armv7-m/libc_s.a
END GROUP
START GROUP
LOAD /opt/gcc-arm-none-eabi/bin/../lib/gcc/arm-none-eabi/4.8.4/armv7-m/libgcc.a
LOAD /opt/gcc-arm-none-eabi/bin/../lib/gcc/arm-none-eabi/4.8.4/../../../../arm-none-eabi/lib/armv7-m/libc_s.a
END GROUP
                0x20005000                _estack = 0x20005000
                0x00000000                _Min_Heap_Size = 0x0
                0x00000400                _Min_Stack_Size = 0x400

.isr_vector     0x08000000      0x10c
                0x08000000                . = ALIGN (0x4)
 *(.isr_vector)
 .isr_vector    0x08000000      0x10c obj/myproject/../..//startup_stm32f10x_md_gcc.o
                0x08000000                g_pfnVectors
                0x0800010c                . = ALIGN (0x4)

.text           0x08000110     0x1c14
                0x08000110                . = ALIGN (0x4)
 *(.text)
 .text          0x08000110      0xc10 /tmp/ccNRKbnw.ltrans0.ltrans.o
                0x080001c2                uartRead
                0x080001f4                isUartTransmitBufferEmpty
                0x0800020a                uartTotalBytesWaiting
                0x08000220                uartSetMode
                0x08000222                _putc.4039
                0x08000240                i2c_ev_handler.4137
                0x080004ec                tfp_printf.constprop.24
                0x08000650                timCCxHandler.5116
                0x0800069c                RCC_GetClocksFreq
                0x08000730                USART_Init
                0x080007d8                uartSetBaudRate
                0x08000822                uartStartTxDMA.4975
                0x08000854                uartWrite
                0x08000888                DMA_DeInit
                0x08000978                NVIC_Init.part.0.5464
                0x080009c4                micros
                0x08000a0c                gpioInit
                0x08000a7e                i2cInit
                0x08000c5c                i2cHandleHardwareFailure.4154
                0x08000c7c                i2c_er_handler.4148
 .text          0x08000d20      0x108 /tmp/ccNRKbnw.ltrans1.ltrans.o
                0x08000d20                SystemInit
                0x08000d6c                TIM4_IRQHandler
                0x08000d78                TIM3_IRQHandler
                0x08000d84                TIM2_IRQHandler
                0x08000d8e                TIM1_CC_IRQHandler
                0x08000d9c                USART1_IRQHandler
                0x08000dd4                DMA1_Channel4_IRQHandler
                0x08000e08                SysTick_Handler
                0x08000e18                I2C2_ER_IRQHandler
                0x08000e1c                I2C1_ER_IRQHandler
                0x08000e20                I2C2_EV_IRQHandler
                0x08000e24                I2C1_EV_IRQHandler
 .text          0x08000e28      0x370 /opt/gcc-arm-none-eabi/bin/../lib/gcc/arm-none-eabi/4.8.4/armv7-m/libgcc.a(_arm_addsubdf3.o)
                0x08000e28                __aeabi_drsub
                0x08000e30                __aeabi_dsub
                0x08000e30                __subdf3
                0x08000e34                __adddf3
                0x08000e34                __aeabi_dadd
                0x080010ac                __aeabi_ui2d
                0x080010ac                __floatunsidf
                0x080010cc                __floatsidf
                0x080010cc                __aeabi_i2d
                0x080010f0                __extendsfdf2
                0x080010f0                __aeabi_f2d
                0x0800112c                __aeabi_ul2d
                0x0800112c                __floatundidf
                0x0800113c                __floatdidf
                0x0800113c                __aeabi_l2d
 .text          0x08001198      0x424 /opt/gcc-arm-none-eabi/bin/../lib/gcc/arm-none-eabi/4.8.4/armv7-m/libgcc.a(_arm_muldivdf3.o)
                0x08001198                __aeabi_dmul
                0x08001198                __muldf3
                0x080013ec                __aeabi_ddiv
                0x080013ec                __divdf3
 .text          0x080015bc       0x50 /opt/gcc-arm-none-eabi/bin/../lib/gcc/arm-none-eabi/4.8.4/armv7-m/libgcc.a(_arm_fixdfsi.o)
                0x080015bc                __fixdfsi
                0x080015bc                __aeabi_d2iz
 *(.text*)
 *fill*         0x0800160c        0x4 
 .text.startup  0x08001610      0x600 /tmp/ccNRKbnw.ltrans1.ltrans.o
                0x08001610                main
 .text.Reset_Handler
                0x08001c10       0xac obj/myproject/../..//startup_stm32f10x_md_gcc.o
                0x08001c10                Reset_Handler
 .text.Default_Handler
                0x08001cbc        0x4 obj/myproject/../..//startup_stm32f10x_md_gcc.o
                0x08001cbc                EXTI2_IRQHandler
                0x08001cbc                DebugMon_Handler
                0x08001cbc                HardFault_Handler
                0x08001cbc                PVD_IRQHandler
                0x08001cbc                PendSV_Handler
                0x08001cbc                NMI_Handler
                0x08001cbc                EXTI3_IRQHandler
                0x08001cbc                EXTI0_IRQHandler
                0x08001cbc                UsageFault_Handler
                0x08001cbc                ADC1_2_IRQHandler
                0x08001cbc                SPI1_IRQHandler
                0x08001cbc                TAMPER_IRQHandler
                0x08001cbc                USART3_IRQHandler
                0x08001cbc                RTC_IRQHandler
                0x08001cbc                DMA1_Channel7_IRQHandler
                0x08001cbc                CAN1_RX1_IRQHandler
                0x08001cbc                DMA1_Channel6_IRQHandler
                0x08001cbc                RCC_IRQHandler
                0x08001cbc                TIM1_TRG_COM_IRQHandler
                0x08001cbc                DMA1_Channel1_IRQHandler
                0x08001cbc                Default_Handler
                0x08001cbc                EXTI15_10_IRQHandler
                0x08001cbc                EXTI9_5_IRQHandler
                0x08001cbc                SPI2_IRQHandler
                0x08001cbc                MemManage_Handler
                0x08001cbc                SVC_Handler
                0x08001cbc                DMA1_Channel5_IRQHandler
                0x08001cbc                EXTI4_IRQHandler
                0x08001cbc                USB_LP_CAN1_RX0_IRQHandler
                0x08001cbc                USB_HP_CAN1_TX_IRQHandler
                0x08001cbc                DMA1_Channel3_IRQHandler
                0x08001cbc                TIM1_UP_IRQHandler
                0x08001cbc                WWDG_IRQHandler
                0x08001cbc                TIM1_BRK_IRQHandler
                0x08001cbc                EXTI1_IRQHandler
                0x08001cbc                RTCAlarm_IRQHandler
                0x08001cbc                USART2_IRQHandler
                0x08001cbc                DMA1_Channel2_IRQHandler
                0x08001cbc                CAN1_SCE_IRQHandler
                0x08001cbc                FLASH_IRQHandler
                0x08001cbc                BusFault_Handler
                0x08001cbc                USBWakeUp_IRQHandler
 *(.rodata)
 .rodata        0x08001cc0       0x48 /tmp/ccNRKbnw.ltrans0.ltrans.o
 .rodata        0x08001d08       0x18 /tmp/ccNRKbnw.ltrans1.ltrans.o
 *(.rodata*)
 .rodata.str1.1
                0x08001d20        0x4 /tmp/ccNRKbnw.ltrans0.ltrans.o
 .rodata.str1.1
                0x00000000        0x4 /tmp/ccNRKbnw.ltrans1.ltrans.o
 *(.glue_7)
 .glue_7        0x00000000        0x0 linker stubs
 *(.glue_7t)
 .glue_7t       0x00000000        0x0 linker stubs
 *(.eh_frame)
 *(.init)
 *(.fini)
                0x08001d24                . = ALIGN (0x4)
                0x08001d24                _etext = .

.vfp11_veneer   0x08001d24        0x0
 .vfp11_veneer  0x00000000        0x0 linker stubs

.v4_bx          0x08001d24        0x0
 .v4_bx         0x00000000        0x0 linker stubs

.iplt           0x08001d24        0x0
 .iplt          0x00000000        0x0 obj/myproject/../..//startup_stm32f10x_md_gcc.o

.rel.dyn        0x08001d24        0x0
 .rel.iplt      0x00000000        0x0 obj/myproject/../..//startup_stm32f10x_md_gcc.o

.ARM.extab
 *(.ARM.extab* .gnu.linkonce.armextab.*)

.ARM            0x08001d24        0x0
                0x08001d24                __exidx_start = .
 *(.ARM.exidx*)
                0x08001d24                __exidx_end = .

.preinit_array  0x08001d24        0x0
                0x08001d24                PROVIDE (__preinit_array_start, .)
 *(.preinit_array*)
                0x08001d24                PROVIDE (__preinit_array_end, .)

.init_array     0x08001d24        0x0
                0x08001d24                PROVIDE (__init_array_start, .)
 *(SORT(.init_array.*))
 *(.init_array*)
                0x08001d24                PROVIDE (__init_array_end, .)

.fini_array     0x08001d24        0x0
                0x08001d24                PROVIDE (__fini_array_start, .)
 *(.fini_array*)
 *(SORT(.fini_array.*))
                0x08001d24                PROVIDE (__fini_array_end, .)
                0x08001d24                _sidata = .

.data           0x20000000       0x2c load address 0x08001d24
                0x20000000                . = ALIGN (0x4)
                0x20000000                _sdata = .
 *(.data)
 .data          0x20000000       0x14 /tmp/ccNRKbnw.ltrans0.ltrans.o
 .data          0x20000014       0x14 /tmp/ccNRKbnw.ltrans1.ltrans.o
                0x20000014                hse_value
 *(.data*)
 .data.SystemCoreClock
                0x20000028        0x4 /tmp/ccNRKbnw.ltrans1.ltrans.o
                0x2000002c                . = ALIGN (0x4)
                0x2000002c                _edata = .

.igot.plt       0x2000002c        0x0 load address 0x08001d50
 .igot.plt      0x00000000        0x0 obj/myproject/../..//startup_stm32f10x_md_gcc.o
                0x2000002c                . = ALIGN (0x4)

.bss            0x2000002c      0x390 load address 0x08001d50
                0x2000002c                _sbss = .
                0x2000002c                __bss_start__ = _sbss
 *(.bss)
 .bss           0x2000002c      0x110 /tmp/ccNRKbnw.ltrans0.ltrans.o
 .bss           0x2000013c      0x280 /tmp/ccNRKbnw.ltrans1.ltrans.o
                0x20000188                sysTickUptime.4767
                0x2000018c                usTicks.4766
                0x20000390                Serial1
                0x20000394                stdout_putf.5285
                0x20000398                stdout_putp.5286
                0x200003a1                addr.4245
                0x200003a2                reg.4243
                0x200003a3                writing.4248
                0x200003a4                reading.4241
                0x200003a8                write_p.4249
                0x200003ac                read_p.4247
                0x200003b0                bytes.4244
                0x200003b1                busy.4250
                0x200003b2                error.4262
                0x200003b4                I2Cx.4237
 *(.bss*)
 *(COMMON)
                0x200003bc                . = ALIGN (0x4)
                0x200003bc                _ebss = .
                0x200003bc                __bss_end__ = _ebss

._user_heap_stack
                0x200003bc      0x400 load address 0x08001d50
                0x200003bc                . = ALIGN (0x4)
                0x200003bc                PROVIDE (end, .)
                0x200003bc                PROVIDE (_end, .)
                0x200003bc                . = (. + _Min_Heap_Size)
                0x200007bc                . = (. + _Min_Stack_Size)
 *fill*         0x200003bc      0x400 
                0x200007bc                . = ALIGN (0x4)

.memory_b1_text
 *(.mb1text)
 *(.mb1text*)
 *(.mb1rodata)
 *(.mb1rodata*)

/DISCARD/
 libc.a(*)
 libm.a(*)
 libgcc.a(*)

.ARM.attributes
                0x00000000       0x2f
 *(.ARM.attributes)
 .ARM.attributes
                0x00000000       0x31 /tmp/ccNRKbnw.ltrans0.ltrans.o
 .ARM.attributes
                0x00000031       0x31 /tmp/ccNRKbnw.ltrans1.ltrans.o
 .ARM.attributes
                0x00000062       0x1d /opt/gcc-arm-none-eabi/bin/../lib/gcc/arm-none-eabi/4.8.4/armv7-m/libgcc.a(_arm_addsubdf3.o)
 .ARM.attributes
                0x0000007f       0x1d /opt/gcc-arm-none-eabi/bin/../lib/gcc/arm-none-eabi/4.8.4/armv7-m/libgcc.a(_arm_muldivdf3.o)
 .ARM.attributes
                0x0000009c       0x1d /opt/gcc-arm-none-eabi/bin/../lib/gcc/arm-none-eabi/4.8.4/armv7-m/libgcc.a(_arm_fixdfsi.o)
 .ARM.attributes
                0x000000b9       0x21 obj/myproject/../..//startup_stm32f10x_md_gcc.o
OUTPUT(obj/myproject.elf elf32-littlearm)

.debug_info     0x00000000     0x4686
 .debug_info    0x00000000     0x253e /tmp/ccNRKbnw.ltrans0.ltrans.o
 .debug_info    0x0000253e     0x2148 /tmp/ccNRKbnw.ltrans1.ltrans.o

.debug_abbrev   0x00000000      0xa55
 .debug_abbrev  0x00000000      0x5a2 /tmp/ccNRKbnw.ltrans0.ltrans.o
 .debug_abbrev  0x000005a2      0x4b3 /tmp/ccNRKbnw.ltrans1.ltrans.o

.debug_loc      0x00000000     0x1f0b
 .debug_loc     0x00000000     0x167f /tmp/ccNRKbnw.ltrans0.ltrans.o
 .debug_loc     0x0000167f      0x88c /tmp/ccNRKbnw.ltrans1.ltrans.o

.debug_aranges  0x00000000       0x48
 .debug_aranges
                0x00000000       0x20 /tmp/ccNRKbnw.ltrans0.ltrans.o
 .debug_aranges
                0x00000020       0x28 /tmp/ccNRKbnw.ltrans1.ltrans.o

.debug_ranges   0x00000000      0x3f0
 .debug_ranges  0x00000000      0x200 /tmp/ccNRKbnw.ltrans0.ltrans.o
 .debug_ranges  0x00000200      0x1f0 /tmp/ccNRKbnw.ltrans1.ltrans.o

.debug_line     0x00000000      0xd75
 .debug_line    0x00000000      0x7be /tmp/ccNRKbnw.ltrans0.ltrans.o
 .debug_line    0x000007be      0x5b7 /tmp/ccNRKbnw.ltrans1.ltrans.o

.debug_str      0x00000000     0x1715
 .debug_str     0x00000000      0xdf8 /tmp/ccNRKbnw.ltrans0.ltrans.o
                                0xe73 (size before relaxing)
 .debug_str     0x00000df8      0x91d /tmp/ccNRKbnw.ltrans1.ltrans.o
                               0x129a (size before relaxing)

.comment        0x00000000       0x70
 .comment       0x00000000       0x70 /tmp/ccNRKbnw.ltrans0.ltrans.o
                                 0x71 (size before relaxing)
 .comment       0x00000000       0x71 /tmp/ccNRKbnw.ltrans1.ltrans.o

.debug_frame    0x00000000      0x398
 .debug_frame   0x00000000      0x2ac /tmp/ccNRKbnw.ltrans0.ltrans.o
 .debug_frame   0x000002ac       0xec /tmp/ccNRKbnw.ltrans1.ltrans.o
